Archive member included because of file (symbol)

/var/folders/28/_tsmhg4172s_wy7vswfkzq9h0000gn/T/arduino_cache_261188/core/core_33a28a35d5be94a4487e04df0719a759.a(exc.S.o)
                              (__exc_nmi)
/var/folders/28/_tsmhg4172s_wy7vswfkzq9h0000gn/T/arduino_cache_261188/core/core_33a28a35d5be94a4487e04df0719a759.a(isrs.S.o)
                              (__stm32reservedexception7)
/var/folders/28/_tsmhg4172s_wy7vswfkzq9h0000gn/T/arduino_cache_261188/core/core_33a28a35d5be94a4487e04df0719a759.a(vector_table.S.o)
                              (__stm32_vector_table)
/var/folders/28/_tsmhg4172s_wy7vswfkzq9h0000gn/T/arduino_cache_261188/core/core_33a28a35d5be94a4487e04df0719a759.a(adc.c.o)
                              /var/folders/28/_tsmhg4172s_wy7vswfkzq9h0000gn/T/arduino_build_279421/core/wirish/boards.cpp.o (adc_set_sample_rate)
/var/folders/28/_tsmhg4172s_wy7vswfkzq9h0000gn/T/arduino_cache_261188/core/core_33a28a35d5be94a4487e04df0719a759.a(adc_f1.c.o)
                              (__irq_adc)
/var/folders/28/_tsmhg4172s_wy7vswfkzq9h0000gn/T/arduino_cache_261188/core/core_33a28a35d5be94a4487e04df0719a759.a(dma_f1.c.o)
                              (__irq_dma1_channel1)
/var/folders/28/_tsmhg4172s_wy7vswfkzq9h0000gn/T/arduino_cache_261188/core/core_33a28a35d5be94a4487e04df0719a759.a(exti.c.o)
                              (__irq_exti0)
/var/folders/28/_tsmhg4172s_wy7vswfkzq9h0000gn/T/arduino_cache_261188/core/core_33a28a35d5be94a4487e04df0719a759.a(exti_f1.c.o)
                              /var/folders/28/_tsmhg4172s_wy7vswfkzq9h0000gn/T/arduino_cache_261188/core/core_33a28a35d5be94a4487e04df0719a759.a(exti.c.o) (exti_select)
/var/folders/28/_tsmhg4172s_wy7vswfkzq9h0000gn/T/arduino_cache_261188/core/core_33a28a35d5be94a4487e04df0719a759.a(flash.c.o)
                              /var/folders/28/_tsmhg4172s_wy7vswfkzq9h0000gn/T/arduino_build_279421/core/wirish/boards.cpp.o (flash_set_latency)
/var/folders/28/_tsmhg4172s_wy7vswfkzq9h0000gn/T/arduino_cache_261188/core/core_33a28a35d5be94a4487e04df0719a759.a(gpio_f1.c.o)
                              /var/folders/28/_tsmhg4172s_wy7vswfkzq9h0000gn/T/arduino_build_279421/core/wirish/boards_setup.cpp.o (gpio_init_all)
/var/folders/28/_tsmhg4172s_wy7vswfkzq9h0000gn/T/arduino_cache_261188/core/core_33a28a35d5be94a4487e04df0719a759.a(i2c_f1.c.o)
                              (__irq_i2c1_ev)
/var/folders/28/_tsmhg4172s_wy7vswfkzq9h0000gn/T/arduino_cache_261188/core/core_33a28a35d5be94a4487e04df0719a759.a(nvic.c.o)
                              /var/folders/28/_tsmhg4172s_wy7vswfkzq9h0000gn/T/arduino_cache_261188/core/core_33a28a35d5be94a4487e04df0719a759.a(i2c_f1.c.o) (nvic_irq_set_priority)
/var/folders/28/_tsmhg4172s_wy7vswfkzq9h0000gn/T/arduino_cache_261188/core/core_33a28a35d5be94a4487e04df0719a759.a(rcc.c.o)
                              /var/folders/28/_tsmhg4172s_wy7vswfkzq9h0000gn/T/arduino_build_279421/core/wirish/boards.cpp.o (rcc_switch_sysclk)
/var/folders/28/_tsmhg4172s_wy7vswfkzq9h0000gn/T/arduino_cache_261188/core/core_33a28a35d5be94a4487e04df0719a759.a(rcc_f1.c.o)
                              /var/folders/28/_tsmhg4172s_wy7vswfkzq9h0000gn/T/arduino_build_279421/core/wirish/boards.cpp.o (rcc_configure_pll)
/var/folders/28/_tsmhg4172s_wy7vswfkzq9h0000gn/T/arduino_cache_261188/core/core_33a28a35d5be94a4487e04df0719a759.a(systick.c.o)
                              /var/folders/28/_tsmhg4172s_wy7vswfkzq9h0000gn/T/arduino_build_279421/core/wirish/boards.cpp.o (systick_init)
/var/folders/28/_tsmhg4172s_wy7vswfkzq9h0000gn/T/arduino_cache_261188/core/core_33a28a35d5be94a4487e04df0719a759.a(timer.c.o)
                              /var/folders/28/_tsmhg4172s_wy7vswfkzq9h0000gn/T/arduino_build_279421/core/wirish/boards.cpp.o (timer_foreach)
/var/folders/28/_tsmhg4172s_wy7vswfkzq9h0000gn/T/arduino_cache_261188/core/core_33a28a35d5be94a4487e04df0719a759.a(usart_f1.c.o)
                              (__irq_usart1)
/var/folders/28/_tsmhg4172s_wy7vswfkzq9h0000gn/T/arduino_cache_261188/core/core_33a28a35d5be94a4487e04df0719a759.a(usart_private.c.o)
                              /var/folders/28/_tsmhg4172s_wy7vswfkzq9h0000gn/T/arduino_cache_261188/core/core_33a28a35d5be94a4487e04df0719a759.a(usart_f1.c.o) (_usart_clock_freq)
/var/folders/28/_tsmhg4172s_wy7vswfkzq9h0000gn/T/arduino_cache_261188/core/core_33a28a35d5be94a4487e04df0719a759.a(usb.c.o)
                              (__irq_usb_lp_can_rx0)
/var/folders/28/_tsmhg4172s_wy7vswfkzq9h0000gn/T/arduino_cache_261188/core/core_33a28a35d5be94a4487e04df0719a759.a(usb_cdcacm.c.o)
                              /var/folders/28/_tsmhg4172s_wy7vswfkzq9h0000gn/T/arduino_cache_261188/core/core_33a28a35d5be94a4487e04df0719a759.a(usb.c.o) (User_Standard_Requests)
/var/folders/28/_tsmhg4172s_wy7vswfkzq9h0000gn/T/arduino_cache_261188/core/core_33a28a35d5be94a4487e04df0719a759.a(usb_reg_map.c.o)
                              /var/folders/28/_tsmhg4172s_wy7vswfkzq9h0000gn/T/arduino_cache_261188/core/core_33a28a35d5be94a4487e04df0719a759.a(usb_cdcacm.c.o) (usb_set_ep_rx_count)
/var/folders/28/_tsmhg4172s_wy7vswfkzq9h0000gn/T/arduino_cache_261188/core/core_33a28a35d5be94a4487e04df0719a759.a(usb_core.c.o)
                              /var/folders/28/_tsmhg4172s_wy7vswfkzq9h0000gn/T/arduino_cache_261188/core/core_33a28a35d5be94a4487e04df0719a759.a(usb_cdcacm.c.o) (Standard_GetDescriptorData)
/var/folders/28/_tsmhg4172s_wy7vswfkzq9h0000gn/T/arduino_cache_261188/core/core_33a28a35d5be94a4487e04df0719a759.a(usb_init.c.o)
                              /var/folders/28/_tsmhg4172s_wy7vswfkzq9h0000gn/T/arduino_cache_261188/core/core_33a28a35d5be94a4487e04df0719a759.a(usb.c.o) (pInformation)
/var/folders/28/_tsmhg4172s_wy7vswfkzq9h0000gn/T/arduino_cache_261188/core/core_33a28a35d5be94a4487e04df0719a759.a(usb_mem.c.o)
                              /var/folders/28/_tsmhg4172s_wy7vswfkzq9h0000gn/T/arduino_cache_261188/core/core_33a28a35d5be94a4487e04df0719a759.a(usb_core.c.o) (UserToPMABufferCopy)
/var/folders/28/_tsmhg4172s_wy7vswfkzq9h0000gn/T/arduino_cache_261188/core/core_33a28a35d5be94a4487e04df0719a759.a(usb_regs.c.o)
                              /var/folders/28/_tsmhg4172s_wy7vswfkzq9h0000gn/T/arduino_cache_261188/core/core_33a28a35d5be94a4487e04df0719a759.a(usb_core.c.o) (SetEPTxStatus)
/var/folders/28/_tsmhg4172s_wy7vswfkzq9h0000gn/T/arduino_cache_261188/core/core_33a28a35d5be94a4487e04df0719a759.a(util.c.o)
                              /var/folders/28/_tsmhg4172s_wy7vswfkzq9h0000gn/T/arduino_cache_261188/core/core_33a28a35d5be94a4487e04df0719a759.a(exc.S.o) (__error)
/var/folders/28/_tsmhg4172s_wy7vswfkzq9h0000gn/T/arduino_cache_261188/core/core_33a28a35d5be94a4487e04df0719a759.a(HardwareSerial.cpp.o)
                              /var/folders/28/_tsmhg4172s_wy7vswfkzq9h0000gn/T/arduino_build_279421/core/board.cpp.o (HardwareSerial::HardwareSerial(usart_dev*, unsigned char, unsigned char))
/var/folders/28/_tsmhg4172s_wy7vswfkzq9h0000gn/T/arduino_cache_261188/core/core_33a28a35d5be94a4487e04df0719a759.a(Print.cpp.o)
                              /var/folders/28/_tsmhg4172s_wy7vswfkzq9h0000gn/T/arduino_cache_261188/core/core_33a28a35d5be94a4487e04df0719a759.a(HardwareSerial.cpp.o) (Print::write(void const*, unsigned long))
/var/folders/28/_tsmhg4172s_wy7vswfkzq9h0000gn/T/arduino_cache_261188/core/core_33a28a35d5be94a4487e04df0719a759.a(cxxabi-compat.cpp.o)
                              /var/folders/28/_tsmhg4172s_wy7vswfkzq9h0000gn/T/arduino_cache_261188/core/core_33a28a35d5be94a4487e04df0719a759.a(HardwareSerial.cpp.o) (__cxa_pure_virtual)
/var/folders/28/_tsmhg4172s_wy7vswfkzq9h0000gn/T/arduino_cache_261188/core/core_33a28a35d5be94a4487e04df0719a759.a(main.cpp.o)
                              (main)
/var/folders/28/_tsmhg4172s_wy7vswfkzq9h0000gn/T/arduino_cache_261188/core/core_33a28a35d5be94a4487e04df0719a759.a(wirish_digital_f1.cpp.o)
                              /var/folders/28/_tsmhg4172s_wy7vswfkzq9h0000gn/T/arduino_build_279421/sketch/DebugWithStlink.ino.cpp.o (pinMode(unsigned char, WiringPinMode))
/var/folders/28/_tsmhg4172s_wy7vswfkzq9h0000gn/T/arduino_cache_261188/core/core_33a28a35d5be94a4487e04df0719a759.a(usb_serial.cpp.o)
                              /var/folders/28/_tsmhg4172s_wy7vswfkzq9h0000gn/T/arduino_build_279421/core/wirish/boards_setup.cpp.o (USBSerial::begin())
/var/folders/28/_tsmhg4172s_wy7vswfkzq9h0000gn/T/arduino_cache_261188/core/core_33a28a35d5be94a4487e04df0719a759.a(wirish_digital.cpp.o)
                              /var/folders/28/_tsmhg4172s_wy7vswfkzq9h0000gn/T/arduino_build_279421/sketch/DebugWithStlink.ino.cpp.o (digitalWrite(unsigned char, unsigned char))
/var/folders/28/_tsmhg4172s_wy7vswfkzq9h0000gn/T/arduino_cache_261188/core/core_33a28a35d5be94a4487e04df0719a759.a(wirish_time.cpp.o)
                              /var/folders/28/_tsmhg4172s_wy7vswfkzq9h0000gn/T/arduino_build_279421/sketch/DebugWithStlink.ino.cpp.o (delay(unsigned long))
/var/folders/28/_tsmhg4172s_wy7vswfkzq9h0000gn/T/arduino_cache_261188/core/core_33a28a35d5be94a4487e04df0719a759.a(hooks.c.o)
                              /var/folders/28/_tsmhg4172s_wy7vswfkzq9h0000gn/T/arduino_cache_261188/core/core_33a28a35d5be94a4487e04df0719a759.a(wirish_time.cpp.o) (yield)
/var/folders/28/_tsmhg4172s_wy7vswfkzq9h0000gn/T/arduino_cache_261188/core/core_33a28a35d5be94a4487e04df0719a759.a(bkp_f1.c.o)
                              /var/folders/28/_tsmhg4172s_wy7vswfkzq9h0000gn/T/arduino_cache_261188/core/core_33a28a35d5be94a4487e04df0719a759.a(usb_serial.cpp.o) (bkp_init)
/var/folders/28/_tsmhg4172s_wy7vswfkzq9h0000gn/T/arduino_cache_261188/core/core_33a28a35d5be94a4487e04df0719a759.a(dma.c.o)
                              /var/folders/28/_tsmhg4172s_wy7vswfkzq9h0000gn/T/arduino_cache_261188/core/core_33a28a35d5be94a4487e04df0719a759.a(dma_f1.c.o) (_dma_addr_type)
/var/folders/28/_tsmhg4172s_wy7vswfkzq9h0000gn/T/arduino_cache_261188/core/core_33a28a35d5be94a4487e04df0719a759.a(gpio.c.o)
                              /var/folders/28/_tsmhg4172s_wy7vswfkzq9h0000gn/T/arduino_cache_261188/core/core_33a28a35d5be94a4487e04df0719a759.a(gpio_f1.c.o) (gpio_init)
/var/folders/28/_tsmhg4172s_wy7vswfkzq9h0000gn/T/arduino_cache_261188/core/core_33a28a35d5be94a4487e04df0719a759.a(i2c.c.o)
                              /var/folders/28/_tsmhg4172s_wy7vswfkzq9h0000gn/T/arduino_cache_261188/core/core_33a28a35d5be94a4487e04df0719a759.a(i2c_f1.c.o) (_i2c_irq_handler)
/var/folders/28/_tsmhg4172s_wy7vswfkzq9h0000gn/T/arduino_cache_261188/core/core_33a28a35d5be94a4487e04df0719a759.a(iwdg.c.o)
                              /var/folders/28/_tsmhg4172s_wy7vswfkzq9h0000gn/T/arduino_cache_261188/core/core_33a28a35d5be94a4487e04df0719a759.a(usb_serial.cpp.o) (iwdg_init)
/var/folders/28/_tsmhg4172s_wy7vswfkzq9h0000gn/T/arduino_cache_261188/core/core_33a28a35d5be94a4487e04df0719a759.a(usart.c.o)
                              /var/folders/28/_tsmhg4172s_wy7vswfkzq9h0000gn/T/arduino_cache_261188/core/core_33a28a35d5be94a4487e04df0719a759.a(HardwareSerial.cpp.o) (usart_init)
/Users/paulgallagher/Library/Arduino15/packages/arduino/tools/arm-none-eabi-gcc/4.8.3-2014q1/bin/../lib/gcc/arm-none-eabi/4.8.3/armv7-m/libgcc.a(_arm_addsubdf3.o)
                              /var/folders/28/_tsmhg4172s_wy7vswfkzq9h0000gn/T/arduino_cache_261188/core/core_33a28a35d5be94a4487e04df0719a759.a(Print.cpp.o) (__aeabi_dsub)
/Users/paulgallagher/Library/Arduino15/packages/arduino/tools/arm-none-eabi-gcc/4.8.3-2014q1/bin/../lib/gcc/arm-none-eabi/4.8.3/armv7-m/libgcc.a(_arm_muldivdf3.o)
                              /var/folders/28/_tsmhg4172s_wy7vswfkzq9h0000gn/T/arduino_cache_261188/core/core_33a28a35d5be94a4487e04df0719a759.a(Print.cpp.o) (__aeabi_dmul)
/Users/paulgallagher/Library/Arduino15/packages/arduino/tools/arm-none-eabi-gcc/4.8.3-2014q1/bin/../lib/gcc/arm-none-eabi/4.8.3/armv7-m/libgcc.a(_arm_cmpdf2.o)
                              /var/folders/28/_tsmhg4172s_wy7vswfkzq9h0000gn/T/arduino_cache_261188/core/core_33a28a35d5be94a4487e04df0719a759.a(Print.cpp.o) (__aeabi_dcmplt)
/Users/paulgallagher/Library/Arduino15/packages/arduino/tools/arm-none-eabi-gcc/4.8.3-2014q1/bin/../lib/gcc/arm-none-eabi/4.8.3/armv7-m/libgcc.a(_arm_fixdfsi.o)
                              /var/folders/28/_tsmhg4172s_wy7vswfkzq9h0000gn/T/arduino_cache_261188/core/core_33a28a35d5be94a4487e04df0719a759.a(Print.cpp.o) (__aeabi_d2iz)
/Users/paulgallagher/Library/Arduino15/packages/arduino/tools/arm-none-eabi-gcc/4.8.3-2014q1/bin/../lib/gcc/arm-none-eabi/4.8.3/armv7-m/libgcc.a(_aeabi_uldivmod.o)
                              /var/folders/28/_tsmhg4172s_wy7vswfkzq9h0000gn/T/arduino_cache_261188/core/core_33a28a35d5be94a4487e04df0719a759.a(Print.cpp.o) (__aeabi_uldivmod)
/Users/paulgallagher/Library/Arduino15/packages/arduino/tools/arm-none-eabi-gcc/4.8.3-2014q1/bin/../lib/gcc/arm-none-eabi/4.8.3/armv7-m/libgcc.a(_fixdfdi.o)
                              /var/folders/28/_tsmhg4172s_wy7vswfkzq9h0000gn/T/arduino_cache_261188/core/core_33a28a35d5be94a4487e04df0719a759.a(Print.cpp.o) (__aeabi_d2lz)
/Users/paulgallagher/Library/Arduino15/packages/arduino/tools/arm-none-eabi-gcc/4.8.3-2014q1/bin/../lib/gcc/arm-none-eabi/4.8.3/armv7-m/libgcc.a(_fixunsdfdi.o)
                              /Users/paulgallagher/Library/Arduino15/packages/arduino/tools/arm-none-eabi-gcc/4.8.3-2014q1/bin/../lib/gcc/arm-none-eabi/4.8.3/armv7-m/libgcc.a(_fixdfdi.o) (__aeabi_d2ulz)
/Users/paulgallagher/Library/Arduino15/packages/arduino/tools/arm-none-eabi-gcc/4.8.3-2014q1/bin/../lib/gcc/arm-none-eabi/4.8.3/armv7-m/libgcc.a(bpabi.o)
                              /Users/paulgallagher/Library/Arduino15/packages/arduino/tools/arm-none-eabi-gcc/4.8.3-2014q1/bin/../lib/gcc/arm-none-eabi/4.8.3/armv7-m/libgcc.a(_aeabi_uldivmod.o) (__gnu_uldivmod_helper)
/Users/paulgallagher/Library/Arduino15/packages/arduino/tools/arm-none-eabi-gcc/4.8.3-2014q1/bin/../lib/gcc/arm-none-eabi/4.8.3/armv7-m/libgcc.a(_dvmd_tls.o)
                              /Users/paulgallagher/Library/Arduino15/packages/arduino/tools/arm-none-eabi-gcc/4.8.3-2014q1/bin/../lib/gcc/arm-none-eabi/4.8.3/armv7-m/libgcc.a(_aeabi_uldivmod.o) (__aeabi_ldiv0)
/Users/paulgallagher/Library/Arduino15/packages/arduino/tools/arm-none-eabi-gcc/4.8.3-2014q1/bin/../lib/gcc/arm-none-eabi/4.8.3/armv7-m/libgcc.a(_arm_fixunsdfsi.o)
                              /Users/paulgallagher/Library/Arduino15/packages/arduino/tools/arm-none-eabi-gcc/4.8.3-2014q1/bin/../lib/gcc/arm-none-eabi/4.8.3/armv7-m/libgcc.a(_fixunsdfdi.o) (__aeabi_d2uiz)
/Users/paulgallagher/Library/Arduino15/packages/arduino/tools/arm-none-eabi-gcc/4.8.3-2014q1/bin/../lib/gcc/arm-none-eabi/4.8.3/armv7-m/libgcc.a(_divdi3.o)
                              /Users/paulgallagher/Library/Arduino15/packages/arduino/tools/arm-none-eabi-gcc/4.8.3-2014q1/bin/../lib/gcc/arm-none-eabi/4.8.3/armv7-m/libgcc.a(bpabi.o) (__divdi3)
/Users/paulgallagher/Library/Arduino15/packages/arduino/tools/arm-none-eabi-gcc/4.8.3-2014q1/bin/../lib/gcc/arm-none-eabi/4.8.3/armv7-m/libgcc.a(_udivdi3.o)
                              /Users/paulgallagher/Library/Arduino15/packages/arduino/tools/arm-none-eabi-gcc/4.8.3-2014q1/bin/../lib/gcc/arm-none-eabi/4.8.3/armv7-m/libgcc.a(bpabi.o) (__udivdi3)
/Users/paulgallagher/Library/Arduino15/packages/arduino/tools/arm-none-eabi-gcc/4.8.3-2014q1/bin/../lib/gcc/arm-none-eabi/4.8.3/../../../../arm-none-eabi/lib/armv7-m/libc.a(lib_a-errno.o)
                              /var/folders/28/_tsmhg4172s_wy7vswfkzq9h0000gn/T/arduino_build_279421/core/wirish/syscalls.c.o (__errno)
/Users/paulgallagher/Library/Arduino15/packages/arduino/tools/arm-none-eabi-gcc/4.8.3-2014q1/bin/../lib/gcc/arm-none-eabi/4.8.3/../../../../arm-none-eabi/lib/armv7-m/libc.a(lib_a-exit.o)
                              /Users/paulgallagher/Library/Arduino15/packages/arduino/tools/arm-none-eabi-gcc/4.8.3-2014q1/bin/../lib/gcc/arm-none-eabi/4.8.3/../../../../arm-none-eabi/lib/armv7-m/crt0.o (exit)
/Users/paulgallagher/Library/Arduino15/packages/arduino/tools/arm-none-eabi-gcc/4.8.3-2014q1/bin/../lib/gcc/arm-none-eabi/4.8.3/../../../../arm-none-eabi/lib/armv7-m/libc.a(lib_a-impure.o)
                              /Users/paulgallagher/Library/Arduino15/packages/arduino/tools/arm-none-eabi-gcc/4.8.3-2014q1/bin/../lib/gcc/arm-none-eabi/4.8.3/../../../../arm-none-eabi/lib/armv7-m/libc.a(lib_a-exit.o) (_global_impure_ptr)
/Users/paulgallagher/Library/Arduino15/packages/arduino/tools/arm-none-eabi-gcc/4.8.3-2014q1/bin/../lib/gcc/arm-none-eabi/4.8.3/../../../../arm-none-eabi/lib/armv7-m/libc.a(lib_a-init.o)
                              /Users/paulgallagher/Library/Arduino15/packages/arduino/tools/arm-none-eabi-gcc/4.8.3-2014q1/bin/../lib/gcc/arm-none-eabi/4.8.3/../../../../arm-none-eabi/lib/armv7-m/crt0.o (__libc_init_array)
/Users/paulgallagher/Library/Arduino15/packages/arduino/tools/arm-none-eabi-gcc/4.8.3-2014q1/bin/../lib/gcc/arm-none-eabi/4.8.3/../../../../arm-none-eabi/lib/armv7-m/libc.a(lib_a-memset.o)
                              /Users/paulgallagher/Library/Arduino15/packages/arduino/tools/arm-none-eabi-gcc/4.8.3-2014q1/bin/../lib/gcc/arm-none-eabi/4.8.3/../../../../arm-none-eabi/lib/armv7-m/crt0.o (memset)
/Users/paulgallagher/Library/Arduino15/packages/arduino/tools/arm-none-eabi-gcc/4.8.3-2014q1/bin/../lib/gcc/arm-none-eabi/4.8.3/../../../../arm-none-eabi/lib/armv7-m/libc.a(lib_a-strlen.o)
                              /var/folders/28/_tsmhg4172s_wy7vswfkzq9h0000gn/T/arduino_cache_261188/core/core_33a28a35d5be94a4487e04df0719a759.a(Print.cpp.o) (strlen)
/Users/paulgallagher/Library/Arduino15/packages/arduino/tools/arm-none-eabi-gcc/4.8.3-2014q1/bin/../lib/gcc/arm-none-eabi/4.8.3/../../../../arm-none-eabi/lib/armv7-m/libc.a(lib_a-__call_atexit.o)
                              /Users/paulgallagher/Library/Arduino15/packages/arduino/tools/arm-none-eabi-gcc/4.8.3-2014q1/bin/../lib/gcc/arm-none-eabi/4.8.3/../../../../arm-none-eabi/lib/armv7-m/libc.a(lib_a-exit.o) (__call_exitprocs)
/Users/paulgallagher/Library/Arduino15/packages/arduino/tools/arm-none-eabi-gcc/4.8.3-2014q1/bin/../lib/gcc/arm-none-eabi/4.8.3/../../../../arm-none-eabi/lib/armv7-m/libc.a(lib_a-atexit.o)
                              /Users/paulgallagher/Library/Arduino15/packages/arduino/tools/arm-none-eabi-gcc/4.8.3-2014q1/bin/../lib/gcc/arm-none-eabi/4.8.3/../../../../arm-none-eabi/lib/armv7-m/libc.a(lib_a-__call_atexit.o) (atexit)
/Users/paulgallagher/Library/Arduino15/packages/arduino/tools/arm-none-eabi-gcc/4.8.3-2014q1/bin/../lib/gcc/arm-none-eabi/4.8.3/../../../../arm-none-eabi/lib/armv7-m/libc.a(lib_a-fini.o)
                              /Users/paulgallagher/Library/Arduino15/packages/arduino/tools/arm-none-eabi-gcc/4.8.3-2014q1/bin/../lib/gcc/arm-none-eabi/4.8.3/../../../../arm-none-eabi/lib/armv7-m/libc.a(lib_a-__call_atexit.o) (__libc_fini_array)
/Users/paulgallagher/Library/Arduino15/packages/arduino/tools/arm-none-eabi-gcc/4.8.3-2014q1/bin/../lib/gcc/arm-none-eabi/4.8.3/../../../../arm-none-eabi/lib/armv7-m/libc.a(lib_a-__atexit.o)
                              /Users/paulgallagher/Library/Arduino15/packages/arduino/tools/arm-none-eabi-gcc/4.8.3-2014q1/bin/../lib/gcc/arm-none-eabi/4.8.3/../../../../arm-none-eabi/lib/armv7-m/libc.a(lib_a-atexit.o) (__register_exitproc)

Allocating common symbols
Common symbol       size              file

SaveRState          0x2               /var/folders/28/_tsmhg4172s_wy7vswfkzq9h0000gn/T/arduino_cache_261188/core/core_33a28a35d5be94a4487e04df0719a759.a(usb.c.o)
SaveState           0x2               /var/folders/28/_tsmhg4172s_wy7vswfkzq9h0000gn/T/arduino_cache_261188/core/core_33a28a35d5be94a4487e04df0719a759.a(usb_init.c.o)
pProperty           0x4               /var/folders/28/_tsmhg4172s_wy7vswfkzq9h0000gn/T/arduino_cache_261188/core/core_33a28a35d5be94a4487e04df0719a759.a(usb_init.c.o)
EPindex             0x1               /var/folders/28/_tsmhg4172s_wy7vswfkzq9h0000gn/T/arduino_cache_261188/core/core_33a28a35d5be94a4487e04df0719a759.a(usb_init.c.o)
SaveTState          0x2               /var/folders/28/_tsmhg4172s_wy7vswfkzq9h0000gn/T/arduino_cache_261188/core/core_33a28a35d5be94a4487e04df0719a759.a(usb.c.o)
systick_uptime_millis
                    0x4               /var/folders/28/_tsmhg4172s_wy7vswfkzq9h0000gn/T/arduino_cache_261188/core/core_33a28a35d5be94a4487e04df0719a759.a(systick.c.o)
Device_Info         0x1c              /var/folders/28/_tsmhg4172s_wy7vswfkzq9h0000gn/T/arduino_cache_261188/core/core_33a28a35d5be94a4487e04df0719a759.a(usb_init.c.o)
pUser_Standard_Requests
                    0x4               /var/folders/28/_tsmhg4172s_wy7vswfkzq9h0000gn/T/arduino_cache_261188/core/core_33a28a35d5be94a4487e04df0719a759.a(usb_init.c.o)
StatusInfo          0x2               /var/folders/28/_tsmhg4172s_wy7vswfkzq9h0000gn/T/arduino_cache_261188/core/core_33a28a35d5be94a4487e04df0719a759.a(usb_core.c.o)
pInformation        0x4               /var/folders/28/_tsmhg4172s_wy7vswfkzq9h0000gn/T/arduino_cache_261188/core/core_33a28a35d5be94a4487e04df0719a759.a(usb_init.c.o)
ResumeS             0x2               /var/folders/28/_tsmhg4172s_wy7vswfkzq9h0000gn/T/arduino_cache_261188/core/core_33a28a35d5be94a4487e04df0719a759.a(usb.c.o)
wInterrupt_Mask     0x2               /var/folders/28/_tsmhg4172s_wy7vswfkzq9h0000gn/T/arduino_cache_261188/core/core_33a28a35d5be94a4487e04df0719a759.a(usb_init.c.o)

Discarded input sections

 .text          0x0000000000000000        0x0 /Users/paulgallagher/Library/Arduino15/packages/arduino/tools/arm-none-eabi-gcc/4.8.3-2014q1/bin/../lib/gcc/arm-none-eabi/4.8.3/armv7-m/crti.o
 .data          0x0000000000000000        0x0 /Users/paulgallagher/Library/Arduino15/packages/arduino/tools/arm-none-eabi-gcc/4.8.3-2014q1/bin/../lib/gcc/arm-none-eabi/4.8.3/armv7-m/crti.o
 .bss           0x0000000000000000        0x0 /Users/paulgallagher/Library/Arduino15/packages/arduino/tools/arm-none-eabi-gcc/4.8.3-2014q1/bin/../lib/gcc/arm-none-eabi/4.8.3/armv7-m/crti.o
 .data          0x0000000000000000        0x4 /Users/paulgallagher/Library/Arduino15/packages/arduino/tools/arm-none-eabi-gcc/4.8.3-2014q1/bin/../lib/gcc/arm-none-eabi/4.8.3/armv7-m/crtbegin.o
 .text          0x0000000000000000       0x74 /Users/paulgallagher/Library/Arduino15/packages/arduino/tools/arm-none-eabi-gcc/4.8.3-2014q1/bin/../lib/gcc/arm-none-eabi/4.8.3/../../../../arm-none-eabi/lib/armv7-m/crt0.o
 .data          0x0000000000000000        0x0 /Users/paulgallagher/Library/Arduino15/packages/arduino/tools/arm-none-eabi-gcc/4.8.3-2014q1/bin/../lib/gcc/arm-none-eabi/4.8.3/../../../../arm-none-eabi/lib/armv7-m/crt0.o
 .bss           0x0000000000000000        0x0 /Users/paulgallagher/Library/Arduino15/packages/arduino/tools/arm-none-eabi-gcc/4.8.3-2014q1/bin/../lib/gcc/arm-none-eabi/4.8.3/../../../../arm-none-eabi/lib/armv7-m/crt0.o
 .ARM.extab     0x0000000000000000        0x0 /Users/paulgallagher/Library/Arduino15/packages/arduino/tools/arm-none-eabi-gcc/4.8.3-2014q1/bin/../lib/gcc/arm-none-eabi/4.8.3/../../../../arm-none-eabi/lib/armv7-m/crt0.o
 .ARM.exidx     0x0000000000000000        0x8 /Users/paulgallagher/Library/Arduino15/packages/arduino/tools/arm-none-eabi-gcc/4.8.3-2014q1/bin/../lib/gcc/arm-none-eabi/4.8.3/../../../../arm-none-eabi/lib/armv7-m/crt0.o
 .text          0x0000000000000000        0x0 /var/folders/28/_tsmhg4172s_wy7vswfkzq9h0000gn/T/arduino_build_279421/sketch/DebugWithStlink.ino.cpp.o
 .data          0x0000000000000000        0x0 /var/folders/28/_tsmhg4172s_wy7vswfkzq9h0000gn/T/arduino_build_279421/sketch/DebugWithStlink.ino.cpp.o
 .bss           0x0000000000000000        0x0 /var/folders/28/_tsmhg4172s_wy7vswfkzq9h0000gn/T/arduino_build_279421/sketch/DebugWithStlink.ino.cpp.o
 .data          0x0000000000000000        0x0 /var/folders/28/_tsmhg4172s_wy7vswfkzq9h0000gn/T/arduino_build_279421/core/wirish/start.S.o
 .bss           0x0000000000000000        0x0 /var/folders/28/_tsmhg4172s_wy7vswfkzq9h0000gn/T/arduino_build_279421/core/wirish/start.S.o
 .ARM.extab     0x0000000000000000        0x0 /var/folders/28/_tsmhg4172s_wy7vswfkzq9h0000gn/T/arduino_build_279421/core/wirish/start.S.o
 .text          0x0000000000000000        0x0 /var/folders/28/_tsmhg4172s_wy7vswfkzq9h0000gn/T/arduino_build_279421/core/wirish/start_c.c.o
 .data          0x0000000000000000        0x0 /var/folders/28/_tsmhg4172s_wy7vswfkzq9h0000gn/T/arduino_build_279421/core/wirish/start_c.c.o
 .bss           0x0000000000000000        0x0 /var/folders/28/_tsmhg4172s_wy7vswfkzq9h0000gn/T/arduino_build_279421/core/wirish/start_c.c.o
 .text          0x0000000000000000        0x0 /var/folders/28/_tsmhg4172s_wy7vswfkzq9h0000gn/T/arduino_build_279421/core/wirish/syscalls.c.o
 .data          0x0000000000000000        0x0 /var/folders/28/_tsmhg4172s_wy7vswfkzq9h0000gn/T/arduino_build_279421/core/wirish/syscalls.c.o
 .bss           0x0000000000000000        0x0 /var/folders/28/_tsmhg4172s_wy7vswfkzq9h0000gn/T/arduino_build_279421/core/wirish/syscalls.c.o
 .text._sbrk    0x0000000000000000       0x44 /var/folders/28/_tsmhg4172s_wy7vswfkzq9h0000gn/T/arduino_build_279421/core/wirish/syscalls.c.o
 .text._open    0x0000000000000000        0x8 /var/folders/28/_tsmhg4172s_wy7vswfkzq9h0000gn/T/arduino_build_279421/core/wirish/syscalls.c.o
 .text._close   0x0000000000000000        0x4 /var/folders/28/_tsmhg4172s_wy7vswfkzq9h0000gn/T/arduino_build_279421/core/wirish/syscalls.c.o
 .text._fstat   0x0000000000000000        0xa /var/folders/28/_tsmhg4172s_wy7vswfkzq9h0000gn/T/arduino_build_279421/core/wirish/syscalls.c.o
 .text._isatty  0x0000000000000000        0x4 /var/folders/28/_tsmhg4172s_wy7vswfkzq9h0000gn/T/arduino_build_279421/core/wirish/syscalls.c.o
 .text.isatty   0x0000000000000000        0x4 /var/folders/28/_tsmhg4172s_wy7vswfkzq9h0000gn/T/arduino_build_279421/core/wirish/syscalls.c.o
 .text._lseek   0x0000000000000000        0x6 /var/folders/28/_tsmhg4172s_wy7vswfkzq9h0000gn/T/arduino_build_279421/core/wirish/syscalls.c.o
 .text.getch    0x0000000000000000        0x4 /var/folders/28/_tsmhg4172s_wy7vswfkzq9h0000gn/T/arduino_build_279421/core/wirish/syscalls.c.o
 .text._read    0x0000000000000000        0xe /var/folders/28/_tsmhg4172s_wy7vswfkzq9h0000gn/T/arduino_build_279421/core/wirish/syscalls.c.o
 .text.putch    0x0000000000000000        0x2 /var/folders/28/_tsmhg4172s_wy7vswfkzq9h0000gn/T/arduino_build_279421/core/wirish/syscalls.c.o
 .text.cgets    0x0000000000000000       0x78 /var/folders/28/_tsmhg4172s_wy7vswfkzq9h0000gn/T/arduino_build_279421/core/wirish/syscalls.c.o
 .text._write   0x0000000000000000       0x1a /var/folders/28/_tsmhg4172s_wy7vswfkzq9h0000gn/T/arduino_build_279421/core/wirish/syscalls.c.o
 .text.fgets    0x0000000000000000        0xc /var/folders/28/_tsmhg4172s_wy7vswfkzq9h0000gn/T/arduino_build_279421/core/wirish/syscalls.c.o
 .bss.pbreak.4444
                0x0000000000000000        0x4 /var/folders/28/_tsmhg4172s_wy7vswfkzq9h0000gn/T/arduino_build_279421/core/wirish/syscalls.c.o
 .text          0x0000000000000000        0x0 /var/folders/28/_tsmhg4172s_wy7vswfkzq9h0000gn/T/arduino_build_279421/core/board.cpp.o
 .data          0x0000000000000000        0x0 /var/folders/28/_tsmhg4172s_wy7vswfkzq9h0000gn/T/arduino_build_279421/core/board.cpp.o
 .bss           0x0000000000000000        0x0 /var/folders/28/_tsmhg4172s_wy7vswfkzq9h0000gn/T/arduino_build_279421/core/board.cpp.o
 .USER_FLASH    0x0000000000000000       0x19 /var/folders/28/_tsmhg4172s_wy7vswfkzq9h0000gn/T/arduino_build_279421/core/board.cpp.o
 .text          0x0000000000000000        0x0 /var/folders/28/_tsmhg4172s_wy7vswfkzq9h0000gn/T/arduino_build_279421/core/wirish/boards.cpp.o
 .data          0x0000000000000000        0x0 /var/folders/28/_tsmhg4172s_wy7vswfkzq9h0000gn/T/arduino_build_279421/core/wirish/boards.cpp.o
 .bss           0x0000000000000000        0x0 /var/folders/28/_tsmhg4172s_wy7vswfkzq9h0000gn/T/arduino_build_279421/core/wirish/boards.cpp.o
 .text._Z9boardInitv
                0x0000000000000000        0x2 /var/folders/28/_tsmhg4172s_wy7vswfkzq9h0000gn/T/arduino_build_279421/core/wirish/boards.cpp.o
 .text._Z12boardUsesPinh
                0x0000000000000000       0x1c /var/folders/28/_tsmhg4172s_wy7vswfkzq9h0000gn/T/arduino_build_279421/core/wirish/boards.cpp.o
 .text          0x0000000000000000        0x0 /var/folders/28/_tsmhg4172s_wy7vswfkzq9h0000gn/T/arduino_build_279421/core/wirish/boards_setup.cpp.o
 .data          0x0000000000000000        0x0 /var/folders/28/_tsmhg4172s_wy7vswfkzq9h0000gn/T/arduino_build_279421/core/wirish/boards_setup.cpp.o
 .bss           0x0000000000000000        0x0 /var/folders/28/_tsmhg4172s_wy7vswfkzq9h0000gn/T/arduino_build_279421/core/wirish/boards_setup.cpp.o
 .data          0x0000000000000000        0x0 /var/folders/28/_tsmhg4172s_wy7vswfkzq9h0000gn/T/arduino_cache_261188/core/core_33a28a35d5be94a4487e04df0719a759.a(exc.S.o)
 .bss           0x0000000000000000        0x0 /var/folders/28/_tsmhg4172s_wy7vswfkzq9h0000gn/T/arduino_cache_261188/core/core_33a28a35d5be94a4487e04df0719a759.a(exc.S.o)
 .data          0x0000000000000000        0x0 /var/folders/28/_tsmhg4172s_wy7vswfkzq9h0000gn/T/arduino_cache_261188/core/core_33a28a35d5be94a4487e04df0719a759.a(isrs.S.o)
 .bss           0x0000000000000000        0x0 /var/folders/28/_tsmhg4172s_wy7vswfkzq9h0000gn/T/arduino_cache_261188/core/core_33a28a35d5be94a4487e04df0719a759.a(isrs.S.o)
 .text          0x0000000000000000        0x0 /var/folders/28/_tsmhg4172s_wy7vswfkzq9h0000gn/T/arduino_cache_261188/core/core_33a28a35d5be94a4487e04df0719a759.a(vector_table.S.o)
 .data          0x0000000000000000        0x0 /var/folders/28/_tsmhg4172s_wy7vswfkzq9h0000gn/T/arduino_cache_261188/core/core_33a28a35d5be94a4487e04df0719a759.a(vector_table.S.o)
 .bss           0x0000000000000000        0x0 /var/folders/28/_tsmhg4172s_wy7vswfkzq9h0000gn/T/arduino_cache_261188/core/core_33a28a35d5be94a4487e04df0719a759.a(vector_table.S.o)
 .text          0x0000000000000000        0x0 /var/folders/28/_tsmhg4172s_wy7vswfkzq9h0000gn/T/arduino_cache_261188/core/core_33a28a35d5be94a4487e04df0719a759.a(adc.c.o)
 .data          0x0000000000000000        0x0 /var/folders/28/_tsmhg4172s_wy7vswfkzq9h0000gn/T/arduino_cache_261188/core/core_33a28a35d5be94a4487e04df0719a759.a(adc.c.o)
 .bss           0x0000000000000000        0x0 /var/folders/28/_tsmhg4172s_wy7vswfkzq9h0000gn/T/arduino_cache_261188/core/core_33a28a35d5be94a4487e04df0719a759.a(adc.c.o)
 .text.adc_read
                0x0000000000000000       0x20 /var/folders/28/_tsmhg4172s_wy7vswfkzq9h0000gn/T/arduino_cache_261188/core/core_33a28a35d5be94a4487e04df0719a759.a(adc.c.o)
 .text          0x0000000000000000        0x0 /var/folders/28/_tsmhg4172s_wy7vswfkzq9h0000gn/T/arduino_cache_261188/core/core_33a28a35d5be94a4487e04df0719a759.a(adc_f1.c.o)
 .data          0x0000000000000000        0x0 /var/folders/28/_tsmhg4172s_wy7vswfkzq9h0000gn/T/arduino_cache_261188/core/core_33a28a35d5be94a4487e04df0719a759.a(adc_f1.c.o)
 .bss           0x0000000000000000        0x0 /var/folders/28/_tsmhg4172s_wy7vswfkzq9h0000gn/T/arduino_cache_261188/core/core_33a28a35d5be94a4487e04df0719a759.a(adc_f1.c.o)
 .text.adc_enable_irq
                0x0000000000000000       0x30 /var/folders/28/_tsmhg4172s_wy7vswfkzq9h0000gn/T/arduino_cache_261188/core/core_33a28a35d5be94a4487e04df0719a759.a(adc_f1.c.o)
 .text.adc_attach_interrupt
                0x0000000000000000        0xa /var/folders/28/_tsmhg4172s_wy7vswfkzq9h0000gn/T/arduino_cache_261188/core/core_33a28a35d5be94a4487e04df0719a759.a(adc_f1.c.o)
 .text.adc_config_gpio
                0x0000000000000000        0xa /var/folders/28/_tsmhg4172s_wy7vswfkzq9h0000gn/T/arduino_cache_261188/core/core_33a28a35d5be94a4487e04df0719a759.a(adc_f1.c.o)
 .text          0x0000000000000000        0x0 /var/folders/28/_tsmhg4172s_wy7vswfkzq9h0000gn/T/arduino_cache_261188/core/core_33a28a35d5be94a4487e04df0719a759.a(dma_f1.c.o)
 .data          0x0000000000000000        0x0 /var/folders/28/_tsmhg4172s_wy7vswfkzq9h0000gn/T/arduino_cache_261188/core/core_33a28a35d5be94a4487e04df0719a759.a(dma_f1.c.o)
 .bss           0x0000000000000000        0x0 /var/folders/28/_tsmhg4172s_wy7vswfkzq9h0000gn/T/arduino_cache_261188/core/core_33a28a35d5be94a4487e04df0719a759.a(dma_f1.c.o)
 .text.dma_set_priority
                0x0000000000000000       0x3c /var/folders/28/_tsmhg4172s_wy7vswfkzq9h0000gn/T/arduino_cache_261188/core/core_33a28a35d5be94a4487e04df0719a759.a(dma_f1.c.o)
 .text.dma_set_num_transfers
                0x0000000000000000       0x34 /var/folders/28/_tsmhg4172s_wy7vswfkzq9h0000gn/T/arduino_cache_261188/core/core_33a28a35d5be94a4487e04df0719a759.a(dma_f1.c.o)
 .text.dma_attach_interrupt
                0x0000000000000000       0x28 /var/folders/28/_tsmhg4172s_wy7vswfkzq9h0000gn/T/arduino_cache_261188/core/core_33a28a35d5be94a4487e04df0719a759.a(dma_f1.c.o)
 .text.dma_detach_interrupt
                0x0000000000000000       0x1c /var/folders/28/_tsmhg4172s_wy7vswfkzq9h0000gn/T/arduino_cache_261188/core/core_33a28a35d5be94a4487e04df0719a759.a(dma_f1.c.o)
 .text.dma_enable
                0x0000000000000000       0x18 /var/folders/28/_tsmhg4172s_wy7vswfkzq9h0000gn/T/arduino_cache_261188/core/core_33a28a35d5be94a4487e04df0719a759.a(dma_f1.c.o)
 .text.dma_disable
                0x0000000000000000       0x18 /var/folders/28/_tsmhg4172s_wy7vswfkzq9h0000gn/T/arduino_cache_261188/core/core_33a28a35d5be94a4487e04df0719a759.a(dma_f1.c.o)
 .text.dma_tube_cfg
                0x0000000000000000      0x184 /var/folders/28/_tsmhg4172s_wy7vswfkzq9h0000gn/T/arduino_cache_261188/core/core_33a28a35d5be94a4487e04df0719a759.a(dma_f1.c.o)
 .text.dma_get_irq_cause
                0x0000000000000000       0x70 /var/folders/28/_tsmhg4172s_wy7vswfkzq9h0000gn/T/arduino_cache_261188/core/core_33a28a35d5be94a4487e04df0719a759.a(dma_f1.c.o)
 .text.dma_set_mem_addr
                0x0000000000000000       0x34 /var/folders/28/_tsmhg4172s_wy7vswfkzq9h0000gn/T/arduino_cache_261188/core/core_33a28a35d5be94a4487e04df0719a759.a(dma_f1.c.o)
 .text.dma_set_per_addr
                0x0000000000000000       0x34 /var/folders/28/_tsmhg4172s_wy7vswfkzq9h0000gn/T/arduino_cache_261188/core/core_33a28a35d5be94a4487e04df0719a759.a(dma_f1.c.o)
 .text.dma_setup_transfer
                0x0000000000000000       0x36 /var/folders/28/_tsmhg4172s_wy7vswfkzq9h0000gn/T/arduino_cache_261188/core/core_33a28a35d5be94a4487e04df0719a759.a(dma_f1.c.o)
 .rodata.str1.1
                0x0000000000000000       0xf0 /var/folders/28/_tsmhg4172s_wy7vswfkzq9h0000gn/T/arduino_cache_261188/core/core_33a28a35d5be94a4487e04df0719a759.a(dma_f1.c.o)
 .text          0x0000000000000000        0x0 /var/folders/28/_tsmhg4172s_wy7vswfkzq9h0000gn/T/arduino_cache_261188/core/core_33a28a35d5be94a4487e04df0719a759.a(exti.c.o)
 .data          0x0000000000000000        0x0 /var/folders/28/_tsmhg4172s_wy7vswfkzq9h0000gn/T/arduino_cache_261188/core/core_33a28a35d5be94a4487e04df0719a759.a(exti.c.o)
 .bss           0x0000000000000000        0x0 /var/folders/28/_tsmhg4172s_wy7vswfkzq9h0000gn/T/arduino_cache_261188/core/core_33a28a35d5be94a4487e04df0719a759.a(exti.c.o)
 .text.exti_attach_callback
                0x0000000000000000       0xd0 /var/folders/28/_tsmhg4172s_wy7vswfkzq9h0000gn/T/arduino_cache_261188/core/core_33a28a35d5be94a4487e04df0719a759.a(exti.c.o)
 .text.exti_attach_interrupt
                0x0000000000000000       0x10 /var/folders/28/_tsmhg4172s_wy7vswfkzq9h0000gn/T/arduino_cache_261188/core/core_33a28a35d5be94a4487e04df0719a759.a(exti.c.o)
 .text.exti_detach_interrupt
                0x0000000000000000       0x28 /var/folders/28/_tsmhg4172s_wy7vswfkzq9h0000gn/T/arduino_cache_261188/core/core_33a28a35d5be94a4487e04df0719a759.a(exti.c.o)
 .text.exti_do_select
                0x0000000000000000       0x1a /var/folders/28/_tsmhg4172s_wy7vswfkzq9h0000gn/T/arduino_cache_261188/core/core_33a28a35d5be94a4487e04df0719a759.a(exti.c.o)
 .rodata.str1.1
                0x0000000000000000       0x7a /var/folders/28/_tsmhg4172s_wy7vswfkzq9h0000gn/T/arduino_cache_261188/core/core_33a28a35d5be94a4487e04df0719a759.a(exti.c.o)
 .text          0x0000000000000000        0x0 /var/folders/28/_tsmhg4172s_wy7vswfkzq9h0000gn/T/arduino_cache_261188/core/core_33a28a35d5be94a4487e04df0719a759.a(exti_f1.c.o)
 .data          0x0000000000000000        0x0 /var/folders/28/_tsmhg4172s_wy7vswfkzq9h0000gn/T/arduino_cache_261188/core/core_33a28a35d5be94a4487e04df0719a759.a(exti_f1.c.o)
 .bss           0x0000000000000000        0x0 /var/folders/28/_tsmhg4172s_wy7vswfkzq9h0000gn/T/arduino_cache_261188/core/core_33a28a35d5be94a4487e04df0719a759.a(exti_f1.c.o)
 .text.exti_select
                0x0000000000000000       0x18 /var/folders/28/_tsmhg4172s_wy7vswfkzq9h0000gn/T/arduino_cache_261188/core/core_33a28a35d5be94a4487e04df0719a759.a(exti_f1.c.o)
 .text          0x0000000000000000        0x0 /var/folders/28/_tsmhg4172s_wy7vswfkzq9h0000gn/T/arduino_cache_261188/core/core_33a28a35d5be94a4487e04df0719a759.a(flash.c.o)
 .data          0x0000000000000000        0x0 /var/folders/28/_tsmhg4172s_wy7vswfkzq9h0000gn/T/arduino_cache_261188/core/core_33a28a35d5be94a4487e04df0719a759.a(flash.c.o)
 .bss           0x0000000000000000        0x0 /var/folders/28/_tsmhg4172s_wy7vswfkzq9h0000gn/T/arduino_cache_261188/core/core_33a28a35d5be94a4487e04df0719a759.a(flash.c.o)
 .text          0x0000000000000000        0x0 /var/folders/28/_tsmhg4172s_wy7vswfkzq9h0000gn/T/arduino_cache_261188/core/core_33a28a35d5be94a4487e04df0719a759.a(gpio_f1.c.o)
 .data          0x0000000000000000        0x0 /var/folders/28/_tsmhg4172s_wy7vswfkzq9h0000gn/T/arduino_cache_261188/core/core_33a28a35d5be94a4487e04df0719a759.a(gpio_f1.c.o)
 .bss           0x0000000000000000        0x0 /var/folders/28/_tsmhg4172s_wy7vswfkzq9h0000gn/T/arduino_cache_261188/core/core_33a28a35d5be94a4487e04df0719a759.a(gpio_f1.c.o)
 .text.gpio_get_mode
                0x0000000000000000       0x2a /var/folders/28/_tsmhg4172s_wy7vswfkzq9h0000gn/T/arduino_cache_261188/core/core_33a28a35d5be94a4487e04df0719a759.a(gpio_f1.c.o)
 .text.afio_remap
                0x0000000000000000       0x20 /var/folders/28/_tsmhg4172s_wy7vswfkzq9h0000gn/T/arduino_cache_261188/core/core_33a28a35d5be94a4487e04df0719a759.a(gpio_f1.c.o)
 .rodata.GPIOA  0x0000000000000000        0x4 /var/folders/28/_tsmhg4172s_wy7vswfkzq9h0000gn/T/arduino_cache_261188/core/core_33a28a35d5be94a4487e04df0719a759.a(gpio_f1.c.o)
 .rodata.GPIOB  0x0000000000000000        0x4 /var/folders/28/_tsmhg4172s_wy7vswfkzq9h0000gn/T/arduino_cache_261188/core/core_33a28a35d5be94a4487e04df0719a759.a(gpio_f1.c.o)
 .rodata.GPIOD  0x0000000000000000        0x4 /var/folders/28/_tsmhg4172s_wy7vswfkzq9h0000gn/T/arduino_cache_261188/core/core_33a28a35d5be94a4487e04df0719a759.a(gpio_f1.c.o)
 .text          0x0000000000000000        0x0 /var/folders/28/_tsmhg4172s_wy7vswfkzq9h0000gn/T/arduino_cache_261188/core/core_33a28a35d5be94a4487e04df0719a759.a(i2c_f1.c.o)
 .data          0x0000000000000000        0x0 /var/folders/28/_tsmhg4172s_wy7vswfkzq9h0000gn/T/arduino_cache_261188/core/core_33a28a35d5be94a4487e04df0719a759.a(i2c_f1.c.o)
 .bss           0x0000000000000000        0x0 /var/folders/28/_tsmhg4172s_wy7vswfkzq9h0000gn/T/arduino_cache_261188/core/core_33a28a35d5be94a4487e04df0719a759.a(i2c_f1.c.o)
 .text.i2c_config_gpios
                0x0000000000000000       0x58 /var/folders/28/_tsmhg4172s_wy7vswfkzq9h0000gn/T/arduino_cache_261188/core/core_33a28a35d5be94a4487e04df0719a759.a(i2c_f1.c.o)
 .text.i2c_master_release_bus
                0x0000000000000000       0x4c /var/folders/28/_tsmhg4172s_wy7vswfkzq9h0000gn/T/arduino_cache_261188/core/core_33a28a35d5be94a4487e04df0719a759.a(i2c_f1.c.o)
 .rodata.I2C1   0x0000000000000000        0x4 /var/folders/28/_tsmhg4172s_wy7vswfkzq9h0000gn/T/arduino_cache_261188/core/core_33a28a35d5be94a4487e04df0719a759.a(i2c_f1.c.o)
 .rodata.I2C2   0x0000000000000000        0x4 /var/folders/28/_tsmhg4172s_wy7vswfkzq9h0000gn/T/arduino_cache_261188/core/core_33a28a35d5be94a4487e04df0719a759.a(i2c_f1.c.o)
 .text          0x0000000000000000        0x0 /var/folders/28/_tsmhg4172s_wy7vswfkzq9h0000gn/T/arduino_cache_261188/core/core_33a28a35d5be94a4487e04df0719a759.a(nvic.c.o)
 .data          0x0000000000000000        0x0 /var/folders/28/_tsmhg4172s_wy7vswfkzq9h0000gn/T/arduino_cache_261188/core/core_33a28a35d5be94a4487e04df0719a759.a(nvic.c.o)
 .bss           0x0000000000000000        0x0 /var/folders/28/_tsmhg4172s_wy7vswfkzq9h0000gn/T/arduino_cache_261188/core/core_33a28a35d5be94a4487e04df0719a759.a(nvic.c.o)
 .text.nvic_set_vector_table
                0x0000000000000000       0x14 /var/folders/28/_tsmhg4172s_wy7vswfkzq9h0000gn/T/arduino_cache_261188/core/core_33a28a35d5be94a4487e04df0719a759.a(nvic.c.o)
 .text          0x0000000000000000        0x0 /var/folders/28/_tsmhg4172s_wy7vswfkzq9h0000gn/T/arduino_cache_261188/core/core_33a28a35d5be94a4487e04df0719a759.a(rcc.c.o)
 .data          0x0000000000000000        0x0 /var/folders/28/_tsmhg4172s_wy7vswfkzq9h0000gn/T/arduino_cache_261188/core/core_33a28a35d5be94a4487e04df0719a759.a(rcc.c.o)
 .bss           0x0000000000000000        0x0 /var/folders/28/_tsmhg4172s_wy7vswfkzq9h0000gn/T/arduino_cache_261188/core/core_33a28a35d5be94a4487e04df0719a759.a(rcc.c.o)
 .text          0x0000000000000000        0x0 /var/folders/28/_tsmhg4172s_wy7vswfkzq9h0000gn/T/arduino_cache_261188/core/core_33a28a35d5be94a4487e04df0719a759.a(rcc_f1.c.o)
 .data          0x0000000000000000        0x0 /var/folders/28/_tsmhg4172s_wy7vswfkzq9h0000gn/T/arduino_cache_261188/core/core_33a28a35d5be94a4487e04df0719a759.a(rcc_f1.c.o)
 .bss           0x0000000000000000        0x0 /var/folders/28/_tsmhg4172s_wy7vswfkzq9h0000gn/T/arduino_cache_261188/core/core_33a28a35d5be94a4487e04df0719a759.a(rcc_f1.c.o)
 .text.rcc_clk_init
                0x0000000000000000       0x5c /var/folders/28/_tsmhg4172s_wy7vswfkzq9h0000gn/T/arduino_cache_261188/core/core_33a28a35d5be94a4487e04df0719a759.a(rcc_f1.c.o)
 .text          0x0000000000000000        0x0 /var/folders/28/_tsmhg4172s_wy7vswfkzq9h0000gn/T/arduino_cache_261188/core/core_33a28a35d5be94a4487e04df0719a759.a(systick.c.o)
 .data          0x0000000000000000        0x0 /var/folders/28/_tsmhg4172s_wy7vswfkzq9h0000gn/T/arduino_cache_261188/core/core_33a28a35d5be94a4487e04df0719a759.a(systick.c.o)
 .bss           0x0000000000000000        0x0 /var/folders/28/_tsmhg4172s_wy7vswfkzq9h0000gn/T/arduino_cache_261188/core/core_33a28a35d5be94a4487e04df0719a759.a(systick.c.o)
 .text.systick_disable
                0x0000000000000000        0xc /var/folders/28/_tsmhg4172s_wy7vswfkzq9h0000gn/T/arduino_cache_261188/core/core_33a28a35d5be94a4487e04df0719a759.a(systick.c.o)
 .text.systick_enable
                0x0000000000000000        0xc /var/folders/28/_tsmhg4172s_wy7vswfkzq9h0000gn/T/arduino_cache_261188/core/core_33a28a35d5be94a4487e04df0719a759.a(systick.c.o)
 .text.systick_attach_callback
                0x0000000000000000        0xc /var/folders/28/_tsmhg4172s_wy7vswfkzq9h0000gn/T/arduino_cache_261188/core/core_33a28a35d5be94a4487e04df0719a759.a(systick.c.o)
 .text          0x0000000000000000        0x0 /var/folders/28/_tsmhg4172s_wy7vswfkzq9h0000gn/T/arduino_cache_261188/core/core_33a28a35d5be94a4487e04df0719a759.a(timer.c.o)
 .data          0x0000000000000000        0x0 /var/folders/28/_tsmhg4172s_wy7vswfkzq9h0000gn/T/arduino_cache_261188/core/core_33a28a35d5be94a4487e04df0719a759.a(timer.c.o)
 .bss           0x0000000000000000        0x0 /var/folders/28/_tsmhg4172s_wy7vswfkzq9h0000gn/T/arduino_cache_261188/core/core_33a28a35d5be94a4487e04df0719a759.a(timer.c.o)
 .text.timer_disable
                0x0000000000000000       0x12 /var/folders/28/_tsmhg4172s_wy7vswfkzq9h0000gn/T/arduino_cache_261188/core/core_33a28a35d5be94a4487e04df0719a759.a(timer.c.o)
 .text.timer_attach_interrupt
                0x0000000000000000       0xf8 /var/folders/28/_tsmhg4172s_wy7vswfkzq9h0000gn/T/arduino_cache_261188/core/core_33a28a35d5be94a4487e04df0719a759.a(timer.c.o)
 .text.get_direction
                0x0000000000000000        0xe /var/folders/28/_tsmhg4172s_wy7vswfkzq9h0000gn/T/arduino_cache_261188/core/core_33a28a35d5be94a4487e04df0719a759.a(timer.c.o)
 .rodata.TIMER1
                0x0000000000000000        0x4 /var/folders/28/_tsmhg4172s_wy7vswfkzq9h0000gn/T/arduino_cache_261188/core/core_33a28a35d5be94a4487e04df0719a759.a(timer.c.o)
 .rodata.TIMER2
                0x0000000000000000        0x4 /var/folders/28/_tsmhg4172s_wy7vswfkzq9h0000gn/T/arduino_cache_261188/core/core_33a28a35d5be94a4487e04df0719a759.a(timer.c.o)
 .rodata.TIMER3
                0x0000000000000000        0x4 /var/folders/28/_tsmhg4172s_wy7vswfkzq9h0000gn/T/arduino_cache_261188/core/core_33a28a35d5be94a4487e04df0719a759.a(timer.c.o)
 .rodata.TIMER4
                0x0000000000000000        0x4 /var/folders/28/_tsmhg4172s_wy7vswfkzq9h0000gn/T/arduino_cache_261188/core/core_33a28a35d5be94a4487e04df0719a759.a(timer.c.o)
 .text          0x0000000000000000        0x0 /var/folders/28/_tsmhg4172s_wy7vswfkzq9h0000gn/T/arduino_cache_261188/core/core_33a28a35d5be94a4487e04df0719a759.a(usart_f1.c.o)
 .data          0x0000000000000000        0x0 /var/folders/28/_tsmhg4172s_wy7vswfkzq9h0000gn/T/arduino_cache_261188/core/core_33a28a35d5be94a4487e04df0719a759.a(usart_f1.c.o)
 .bss           0x0000000000000000        0x0 /var/folders/28/_tsmhg4172s_wy7vswfkzq9h0000gn/T/arduino_cache_261188/core/core_33a28a35d5be94a4487e04df0719a759.a(usart_f1.c.o)
 .text.usart_config_gpios_async
                0x0000000000000000       0x4a /var/folders/28/_tsmhg4172s_wy7vswfkzq9h0000gn/T/arduino_cache_261188/core/core_33a28a35d5be94a4487e04df0719a759.a(usart_f1.c.o)
 .text.usart_set_baud_rate
                0x0000000000000000       0x54 /var/folders/28/_tsmhg4172s_wy7vswfkzq9h0000gn/T/arduino_cache_261188/core/core_33a28a35d5be94a4487e04df0719a759.a(usart_f1.c.o)
 .text.usart_foreach
                0x0000000000000000       0x24 /var/folders/28/_tsmhg4172s_wy7vswfkzq9h0000gn/T/arduino_cache_261188/core/core_33a28a35d5be94a4487e04df0719a759.a(usart_f1.c.o)
 .rodata.str1.1
                0x0000000000000000       0x82 /var/folders/28/_tsmhg4172s_wy7vswfkzq9h0000gn/T/arduino_cache_261188/core/core_33a28a35d5be94a4487e04df0719a759.a(usart_f1.c.o)
 .text          0x0000000000000000        0x0 /var/folders/28/_tsmhg4172s_wy7vswfkzq9h0000gn/T/arduino_cache_261188/core/core_33a28a35d5be94a4487e04df0719a759.a(usart_private.c.o)
 .data          0x0000000000000000        0x0 /var/folders/28/_tsmhg4172s_wy7vswfkzq9h0000gn/T/arduino_cache_261188/core/core_33a28a35d5be94a4487e04df0719a759.a(usart_private.c.o)
 .bss           0x0000000000000000        0x0 /var/folders/28/_tsmhg4172s_wy7vswfkzq9h0000gn/T/arduino_cache_261188/core/core_33a28a35d5be94a4487e04df0719a759.a(usart_private.c.o)
 .text._usart_clock_freq
                0x0000000000000000       0x24 /var/folders/28/_tsmhg4172s_wy7vswfkzq9h0000gn/T/arduino_cache_261188/core/core_33a28a35d5be94a4487e04df0719a759.a(usart_private.c.o)
 .text          0x0000000000000000        0x0 /var/folders/28/_tsmhg4172s_wy7vswfkzq9h0000gn/T/arduino_cache_261188/core/core_33a28a35d5be94a4487e04df0719a759.a(usb.c.o)
 .data          0x0000000000000000        0x0 /var/folders/28/_tsmhg4172s_wy7vswfkzq9h0000gn/T/arduino_cache_261188/core/core_33a28a35d5be94a4487e04df0719a759.a(usb.c.o)
 .bss           0x0000000000000000        0x0 /var/folders/28/_tsmhg4172s_wy7vswfkzq9h0000gn/T/arduino_cache_261188/core/core_33a28a35d5be94a4487e04df0719a759.a(usb.c.o)
 .text.usb_power_off
                0x0000000000000000       0x14 /var/folders/28/_tsmhg4172s_wy7vswfkzq9h0000gn/T/arduino_cache_261188/core/core_33a28a35d5be94a4487e04df0719a759.a(usb.c.o)
 .text          0x0000000000000000        0x0 /var/folders/28/_tsmhg4172s_wy7vswfkzq9h0000gn/T/arduino_cache_261188/core/core_33a28a35d5be94a4487e04df0719a759.a(usb_cdcacm.c.o)
 .data          0x0000000000000000        0x0 /var/folders/28/_tsmhg4172s_wy7vswfkzq9h0000gn/T/arduino_cache_261188/core/core_33a28a35d5be94a4487e04df0719a759.a(usb_cdcacm.c.o)
 .bss           0x0000000000000000        0x0 /var/folders/28/_tsmhg4172s_wy7vswfkzq9h0000gn/T/arduino_cache_261188/core/core_33a28a35d5be94a4487e04df0719a759.a(usb_cdcacm.c.o)
 .text.usb_cdcacm_disable
                0x0000000000000000       0x20 /var/folders/28/_tsmhg4172s_wy7vswfkzq9h0000gn/T/arduino_cache_261188/core/core_33a28a35d5be94a4487e04df0719a759.a(usb_cdcacm.c.o)
 .text.usb_cdcacm_putc
                0x0000000000000000       0x1a /var/folders/28/_tsmhg4172s_wy7vswfkzq9h0000gn/T/arduino_cache_261188/core/core_33a28a35d5be94a4487e04df0719a759.a(usb_cdcacm.c.o)
 .text.usb_cdcacm_is_transmitting
                0x0000000000000000       0x14 /var/folders/28/_tsmhg4172s_wy7vswfkzq9h0000gn/T/arduino_cache_261188/core/core_33a28a35d5be94a4487e04df0719a759.a(usb_cdcacm.c.o)
 .text.usb_cdcacm_get_pending
                0x0000000000000000       0x18 /var/folders/28/_tsmhg4172s_wy7vswfkzq9h0000gn/T/arduino_cache_261188/core/core_33a28a35d5be94a4487e04df0719a759.a(usb_cdcacm.c.o)
 .text.usb_cdcacm_peek_char
                0x0000000000000000       0x24 /var/folders/28/_tsmhg4172s_wy7vswfkzq9h0000gn/T/arduino_cache_261188/core/core_33a28a35d5be94a4487e04df0719a759.a(usb_cdcacm.c.o)
 .text.usb_cdcacm_get_rts
                0x0000000000000000       0x10 /var/folders/28/_tsmhg4172s_wy7vswfkzq9h0000gn/T/arduino_cache_261188/core/core_33a28a35d5be94a4487e04df0719a759.a(usb_cdcacm.c.o)
 .text.usb_cdcacm_get_line_coding
                0x0000000000000000       0x18 /var/folders/28/_tsmhg4172s_wy7vswfkzq9h0000gn/T/arduino_cache_261188/core/core_33a28a35d5be94a4487e04df0719a759.a(usb_cdcacm.c.o)
 .text.usb_cdcacm_get_stop_bits
                0x0000000000000000        0xc /var/folders/28/_tsmhg4172s_wy7vswfkzq9h0000gn/T/arduino_cache_261188/core/core_33a28a35d5be94a4487e04df0719a759.a(usb_cdcacm.c.o)
 .text.usb_cdcacm_get_parity
                0x0000000000000000        0xc /var/folders/28/_tsmhg4172s_wy7vswfkzq9h0000gn/T/arduino_cache_261188/core/core_33a28a35d5be94a4487e04df0719a759.a(usb_cdcacm.c.o)
 .text.usb_cdcacm_get_n_data_bits
                0x0000000000000000        0xc /var/folders/28/_tsmhg4172s_wy7vswfkzq9h0000gn/T/arduino_cache_261188/core/core_33a28a35d5be94a4487e04df0719a759.a(usb_cdcacm.c.o)
 .text          0x0000000000000000        0x0 /var/folders/28/_tsmhg4172s_wy7vswfkzq9h0000gn/T/arduino_cache_261188/core/core_33a28a35d5be94a4487e04df0719a759.a(usb_reg_map.c.o)
 .data          0x0000000000000000        0x0 /var/folders/28/_tsmhg4172s_wy7vswfkzq9h0000gn/T/arduino_cache_261188/core/core_33a28a35d5be94a4487e04df0719a759.a(usb_reg_map.c.o)
 .bss           0x0000000000000000        0x0 /var/folders/28/_tsmhg4172s_wy7vswfkzq9h0000gn/T/arduino_cache_261188/core/core_33a28a35d5be94a4487e04df0719a759.a(usb_reg_map.c.o)
 .text          0x0000000000000000        0x0 /var/folders/28/_tsmhg4172s_wy7vswfkzq9h0000gn/T/arduino_cache_261188/core/core_33a28a35d5be94a4487e04df0719a759.a(usb_core.c.o)
 .data          0x0000000000000000        0x0 /var/folders/28/_tsmhg4172s_wy7vswfkzq9h0000gn/T/arduino_cache_261188/core/core_33a28a35d5be94a4487e04df0719a759.a(usb_core.c.o)
 .bss           0x0000000000000000        0x0 /var/folders/28/_tsmhg4172s_wy7vswfkzq9h0000gn/T/arduino_cache_261188/core/core_33a28a35d5be94a4487e04df0719a759.a(usb_core.c.o)
 .text          0x0000000000000000        0x0 /var/folders/28/_tsmhg4172s_wy7vswfkzq9h0000gn/T/arduino_cache_261188/core/core_33a28a35d5be94a4487e04df0719a759.a(usb_init.c.o)
 .data          0x0000000000000000        0x0 /var/folders/28/_tsmhg4172s_wy7vswfkzq9h0000gn/T/arduino_cache_261188/core/core_33a28a35d5be94a4487e04df0719a759.a(usb_init.c.o)
 .bss           0x0000000000000000        0x0 /var/folders/28/_tsmhg4172s_wy7vswfkzq9h0000gn/T/arduino_cache_261188/core/core_33a28a35d5be94a4487e04df0719a759.a(usb_init.c.o)
 .text.USB_Init
                0x0000000000000000       0x38 /var/folders/28/_tsmhg4172s_wy7vswfkzq9h0000gn/T/arduino_cache_261188/core/core_33a28a35d5be94a4487e04df0719a759.a(usb_init.c.o)
 .text          0x0000000000000000        0x0 /var/folders/28/_tsmhg4172s_wy7vswfkzq9h0000gn/T/arduino_cache_261188/core/core_33a28a35d5be94a4487e04df0719a759.a(usb_mem.c.o)
 .data          0x0000000000000000        0x0 /var/folders/28/_tsmhg4172s_wy7vswfkzq9h0000gn/T/arduino_cache_261188/core/core_33a28a35d5be94a4487e04df0719a759.a(usb_mem.c.o)
 .bss           0x0000000000000000        0x0 /var/folders/28/_tsmhg4172s_wy7vswfkzq9h0000gn/T/arduino_cache_261188/core/core_33a28a35d5be94a4487e04df0719a759.a(usb_mem.c.o)
 .text          0x0000000000000000        0x0 /var/folders/28/_tsmhg4172s_wy7vswfkzq9h0000gn/T/arduino_cache_261188/core/core_33a28a35d5be94a4487e04df0719a759.a(usb_regs.c.o)
 .data          0x0000000000000000        0x0 /var/folders/28/_tsmhg4172s_wy7vswfkzq9h0000gn/T/arduino_cache_261188/core/core_33a28a35d5be94a4487e04df0719a759.a(usb_regs.c.o)
 .bss           0x0000000000000000        0x0 /var/folders/28/_tsmhg4172s_wy7vswfkzq9h0000gn/T/arduino_cache_261188/core/core_33a28a35d5be94a4487e04df0719a759.a(usb_regs.c.o)
 .text.SetCNTR  0x0000000000000000        0xc /var/folders/28/_tsmhg4172s_wy7vswfkzq9h0000gn/T/arduino_cache_261188/core/core_33a28a35d5be94a4487e04df0719a759.a(usb_regs.c.o)
 .text.GetCNTR  0x0000000000000000        0xc /var/folders/28/_tsmhg4172s_wy7vswfkzq9h0000gn/T/arduino_cache_261188/core/core_33a28a35d5be94a4487e04df0719a759.a(usb_regs.c.o)
 .text.SetISTR  0x0000000000000000        0xc /var/folders/28/_tsmhg4172s_wy7vswfkzq9h0000gn/T/arduino_cache_261188/core/core_33a28a35d5be94a4487e04df0719a759.a(usb_regs.c.o)
 .text.GetISTR  0x0000000000000000        0xc /var/folders/28/_tsmhg4172s_wy7vswfkzq9h0000gn/T/arduino_cache_261188/core/core_33a28a35d5be94a4487e04df0719a759.a(usb_regs.c.o)
 .text.GetFNR   0x0000000000000000        0xc /var/folders/28/_tsmhg4172s_wy7vswfkzq9h0000gn/T/arduino_cache_261188/core/core_33a28a35d5be94a4487e04df0719a759.a(usb_regs.c.o)
 .text.SetDADDR
                0x0000000000000000        0xc /var/folders/28/_tsmhg4172s_wy7vswfkzq9h0000gn/T/arduino_cache_261188/core/core_33a28a35d5be94a4487e04df0719a759.a(usb_regs.c.o)
 .text.GetDADDR
                0x0000000000000000        0xc /var/folders/28/_tsmhg4172s_wy7vswfkzq9h0000gn/T/arduino_cache_261188/core/core_33a28a35d5be94a4487e04df0719a759.a(usb_regs.c.o)
 .text.SetBTABLE
                0x0000000000000000       0x10 /var/folders/28/_tsmhg4172s_wy7vswfkzq9h0000gn/T/arduino_cache_261188/core/core_33a28a35d5be94a4487e04df0719a759.a(usb_regs.c.o)
 .text.GetBTABLE
                0x0000000000000000        0xc /var/folders/28/_tsmhg4172s_wy7vswfkzq9h0000gn/T/arduino_cache_261188/core/core_33a28a35d5be94a4487e04df0719a759.a(usb_regs.c.o)
 .text.SetENDPOINT
                0x0000000000000000        0xe /var/folders/28/_tsmhg4172s_wy7vswfkzq9h0000gn/T/arduino_cache_261188/core/core_33a28a35d5be94a4487e04df0719a759.a(usb_regs.c.o)
 .text.GetENDPOINT
                0x0000000000000000       0x10 /var/folders/28/_tsmhg4172s_wy7vswfkzq9h0000gn/T/arduino_cache_261188/core/core_33a28a35d5be94a4487e04df0719a759.a(usb_regs.c.o)
 .text.SetEPType
                0x0000000000000000       0x1c /var/folders/28/_tsmhg4172s_wy7vswfkzq9h0000gn/T/arduino_cache_261188/core/core_33a28a35d5be94a4487e04df0719a759.a(usb_regs.c.o)
 .text.GetEPType
                0x0000000000000000       0x12 /var/folders/28/_tsmhg4172s_wy7vswfkzq9h0000gn/T/arduino_cache_261188/core/core_33a28a35d5be94a4487e04df0719a759.a(usb_regs.c.o)
 .text.SetEPRxStatus
                0x0000000000000000       0x2a /var/folders/28/_tsmhg4172s_wy7vswfkzq9h0000gn/T/arduino_cache_261188/core/core_33a28a35d5be94a4487e04df0719a759.a(usb_regs.c.o)
 .text.SetDouBleBuffEPStall
                0x0000000000000000       0x24 /var/folders/28/_tsmhg4172s_wy7vswfkzq9h0000gn/T/arduino_cache_261188/core/core_33a28a35d5be94a4487e04df0719a759.a(usb_regs.c.o)
 .text.GetEPTxStatus
                0x0000000000000000       0x12 /var/folders/28/_tsmhg4172s_wy7vswfkzq9h0000gn/T/arduino_cache_261188/core/core_33a28a35d5be94a4487e04df0719a759.a(usb_regs.c.o)
 .text.GetEPRxStatus
                0x0000000000000000       0x12 /var/folders/28/_tsmhg4172s_wy7vswfkzq9h0000gn/T/arduino_cache_261188/core/core_33a28a35d5be94a4487e04df0719a759.a(usb_regs.c.o)
 .text.SetEPTxValid
                0x0000000000000000       0x1e /var/folders/28/_tsmhg4172s_wy7vswfkzq9h0000gn/T/arduino_cache_261188/core/core_33a28a35d5be94a4487e04df0719a759.a(usb_regs.c.o)
 .text.SetEPRxValid
                0x0000000000000000       0x1e /var/folders/28/_tsmhg4172s_wy7vswfkzq9h0000gn/T/arduino_cache_261188/core/core_33a28a35d5be94a4487e04df0719a759.a(usb_regs.c.o)
 .text.SetEP_KIND
                0x0000000000000000       0x1e /var/folders/28/_tsmhg4172s_wy7vswfkzq9h0000gn/T/arduino_cache_261188/core/core_33a28a35d5be94a4487e04df0719a759.a(usb_regs.c.o)
 .text.ClearEP_KIND
                0x0000000000000000       0x1c /var/folders/28/_tsmhg4172s_wy7vswfkzq9h0000gn/T/arduino_cache_261188/core/core_33a28a35d5be94a4487e04df0719a759.a(usb_regs.c.o)
 .text.Clear_Status_Out
                0x0000000000000000       0x1c /var/folders/28/_tsmhg4172s_wy7vswfkzq9h0000gn/T/arduino_cache_261188/core/core_33a28a35d5be94a4487e04df0719a759.a(usb_regs.c.o)
 .text.Set_Status_Out
                0x0000000000000000       0x1e /var/folders/28/_tsmhg4172s_wy7vswfkzq9h0000gn/T/arduino_cache_261188/core/core_33a28a35d5be94a4487e04df0719a759.a(usb_regs.c.o)
 .text.SetEPDoubleBuff
                0x0000000000000000       0x1e /var/folders/28/_tsmhg4172s_wy7vswfkzq9h0000gn/T/arduino_cache_261188/core/core_33a28a35d5be94a4487e04df0719a759.a(usb_regs.c.o)
 .text.ClearEPDoubleBuff
                0x0000000000000000       0x1c /var/folders/28/_tsmhg4172s_wy7vswfkzq9h0000gn/T/arduino_cache_261188/core/core_33a28a35d5be94a4487e04df0719a759.a(usb_regs.c.o)
 .text.GetTxStallStatus
                0x0000000000000000       0x1a /var/folders/28/_tsmhg4172s_wy7vswfkzq9h0000gn/T/arduino_cache_261188/core/core_33a28a35d5be94a4487e04df0719a759.a(usb_regs.c.o)
 .text.GetRxStallStatus
                0x0000000000000000       0x1a /var/folders/28/_tsmhg4172s_wy7vswfkzq9h0000gn/T/arduino_cache_261188/core/core_33a28a35d5be94a4487e04df0719a759.a(usb_regs.c.o)
 .text.ClearEP_CTR_RX
                0x0000000000000000       0x18 /var/folders/28/_tsmhg4172s_wy7vswfkzq9h0000gn/T/arduino_cache_261188/core/core_33a28a35d5be94a4487e04df0719a759.a(usb_regs.c.o)
 .text.ClearEP_CTR_TX
                0x0000000000000000       0x1c /var/folders/28/_tsmhg4172s_wy7vswfkzq9h0000gn/T/arduino_cache_261188/core/core_33a28a35d5be94a4487e04df0719a759.a(usb_regs.c.o)
 .text.ToggleDTOG_RX
                0x0000000000000000       0x20 /var/folders/28/_tsmhg4172s_wy7vswfkzq9h0000gn/T/arduino_cache_261188/core/core_33a28a35d5be94a4487e04df0719a759.a(usb_regs.c.o)
 .text.ToggleDTOG_TX
                0x0000000000000000       0x20 /var/folders/28/_tsmhg4172s_wy7vswfkzq9h0000gn/T/arduino_cache_261188/core/core_33a28a35d5be94a4487e04df0719a759.a(usb_regs.c.o)
 .text.SetEPAddress
                0x0000000000000000       0x1e /var/folders/28/_tsmhg4172s_wy7vswfkzq9h0000gn/T/arduino_cache_261188/core/core_33a28a35d5be94a4487e04df0719a759.a(usb_regs.c.o)
 .text.GetEPAddress
                0x0000000000000000       0x12 /var/folders/28/_tsmhg4172s_wy7vswfkzq9h0000gn/T/arduino_cache_261188/core/core_33a28a35d5be94a4487e04df0719a759.a(usb_regs.c.o)
 .text.SetEPTxAddr
                0x0000000000000000       0x20 /var/folders/28/_tsmhg4172s_wy7vswfkzq9h0000gn/T/arduino_cache_261188/core/core_33a28a35d5be94a4487e04df0719a759.a(usb_regs.c.o)
 .text.SetEPRxAddr
                0x0000000000000000       0x20 /var/folders/28/_tsmhg4172s_wy7vswfkzq9h0000gn/T/arduino_cache_261188/core/core_33a28a35d5be94a4487e04df0719a759.a(usb_regs.c.o)
 .text.SetEPCountRxReg
                0x0000000000000000       0x26 /var/folders/28/_tsmhg4172s_wy7vswfkzq9h0000gn/T/arduino_cache_261188/core/core_33a28a35d5be94a4487e04df0719a759.a(usb_regs.c.o)
 .text.GetEPTxCount
                0x0000000000000000       0x20 /var/folders/28/_tsmhg4172s_wy7vswfkzq9h0000gn/T/arduino_cache_261188/core/core_33a28a35d5be94a4487e04df0719a759.a(usb_regs.c.o)
 .text.GetEPRxCount
                0x0000000000000000       0x20 /var/folders/28/_tsmhg4172s_wy7vswfkzq9h0000gn/T/arduino_cache_261188/core/core_33a28a35d5be94a4487e04df0719a759.a(usb_regs.c.o)
 .text.SetEPDblBuffAddr
                0x0000000000000000       0x38 /var/folders/28/_tsmhg4172s_wy7vswfkzq9h0000gn/T/arduino_cache_261188/core/core_33a28a35d5be94a4487e04df0719a759.a(usb_regs.c.o)
 .text.SetEPDblBuf0Addr
                0x0000000000000000       0x20 /var/folders/28/_tsmhg4172s_wy7vswfkzq9h0000gn/T/arduino_cache_261188/core/core_33a28a35d5be94a4487e04df0719a759.a(usb_regs.c.o)
 .text.SetEPDblBuf1Addr
                0x0000000000000000       0x20 /var/folders/28/_tsmhg4172s_wy7vswfkzq9h0000gn/T/arduino_cache_261188/core/core_33a28a35d5be94a4487e04df0719a759.a(usb_regs.c.o)
 .text.GetEPDblBuf0Addr
                0x0000000000000000       0x1c /var/folders/28/_tsmhg4172s_wy7vswfkzq9h0000gn/T/arduino_cache_261188/core/core_33a28a35d5be94a4487e04df0719a759.a(usb_regs.c.o)
 .text.GetEPDblBuf1Addr
                0x0000000000000000       0x1c /var/folders/28/_tsmhg4172s_wy7vswfkzq9h0000gn/T/arduino_cache_261188/core/core_33a28a35d5be94a4487e04df0719a759.a(usb_regs.c.o)
 .text.SetEPDblBuffCount
                0x0000000000000000       0xa8 /var/folders/28/_tsmhg4172s_wy7vswfkzq9h0000gn/T/arduino_cache_261188/core/core_33a28a35d5be94a4487e04df0719a759.a(usb_regs.c.o)
 .text.SetEPDblBuf0Count
                0x0000000000000000       0x5c /var/folders/28/_tsmhg4172s_wy7vswfkzq9h0000gn/T/arduino_cache_261188/core/core_33a28a35d5be94a4487e04df0719a759.a(usb_regs.c.o)
 .text.SetEPDblBuf1Count
                0x0000000000000000       0x5c /var/folders/28/_tsmhg4172s_wy7vswfkzq9h0000gn/T/arduino_cache_261188/core/core_33a28a35d5be94a4487e04df0719a759.a(usb_regs.c.o)
 .text.GetEPDblBuf0Count
                0x0000000000000000       0x20 /var/folders/28/_tsmhg4172s_wy7vswfkzq9h0000gn/T/arduino_cache_261188/core/core_33a28a35d5be94a4487e04df0719a759.a(usb_regs.c.o)
 .text.GetEPDblBuf1Count
                0x0000000000000000       0x20 /var/folders/28/_tsmhg4172s_wy7vswfkzq9h0000gn/T/arduino_cache_261188/core/core_33a28a35d5be94a4487e04df0719a759.a(usb_regs.c.o)
 .text.GetEPDblBufDir
                0x0000000000000000       0x44 /var/folders/28/_tsmhg4172s_wy7vswfkzq9h0000gn/T/arduino_cache_261188/core/core_33a28a35d5be94a4487e04df0719a759.a(usb_regs.c.o)
 .text.FreeUserBuffer
                0x0000000000000000       0x3a /var/folders/28/_tsmhg4172s_wy7vswfkzq9h0000gn/T/arduino_cache_261188/core/core_33a28a35d5be94a4487e04df0719a759.a(usb_regs.c.o)
 .text.ToWord   0x0000000000000000        0x6 /var/folders/28/_tsmhg4172s_wy7vswfkzq9h0000gn/T/arduino_cache_261188/core/core_33a28a35d5be94a4487e04df0719a759.a(usb_regs.c.o)
 .text.ByteSwap
                0x0000000000000000        0xa /var/folders/28/_tsmhg4172s_wy7vswfkzq9h0000gn/T/arduino_cache_261188/core/core_33a28a35d5be94a4487e04df0719a759.a(usb_regs.c.o)
 .text          0x0000000000000000        0x0 /var/folders/28/_tsmhg4172s_wy7vswfkzq9h0000gn/T/arduino_cache_261188/core/core_33a28a35d5be94a4487e04df0719a759.a(util.c.o)
 .data          0x0000000000000000        0x0 /var/folders/28/_tsmhg4172s_wy7vswfkzq9h0000gn/T/arduino_cache_261188/core/core_33a28a35d5be94a4487e04df0719a759.a(util.c.o)
 .bss           0x0000000000000000        0x0 /var/folders/28/_tsmhg4172s_wy7vswfkzq9h0000gn/T/arduino_cache_261188/core/core_33a28a35d5be94a4487e04df0719a759.a(util.c.o)
 .text.__assert_func
                0x0000000000000000        0x8 /var/folders/28/_tsmhg4172s_wy7vswfkzq9h0000gn/T/arduino_cache_261188/core/core_33a28a35d5be94a4487e04df0719a759.a(util.c.o)
 .text.abort    0x0000000000000000       0x1c /var/folders/28/_tsmhg4172s_wy7vswfkzq9h0000gn/T/arduino_cache_261188/core/core_33a28a35d5be94a4487e04df0719a759.a(util.c.o)
 .group         0x0000000000000000        0x8 /var/folders/28/_tsmhg4172s_wy7vswfkzq9h0000gn/T/arduino_cache_261188/core/core_33a28a35d5be94a4487e04df0719a759.a(HardwareSerial.cpp.o)
 .text          0x0000000000000000        0x0 /var/folders/28/_tsmhg4172s_wy7vswfkzq9h0000gn/T/arduino_cache_261188/core/core_33a28a35d5be94a4487e04df0719a759.a(HardwareSerial.cpp.o)
 .data          0x0000000000000000        0x0 /var/folders/28/_tsmhg4172s_wy7vswfkzq9h0000gn/T/arduino_cache_261188/core/core_33a28a35d5be94a4487e04df0719a759.a(HardwareSerial.cpp.o)
 .bss           0x0000000000000000        0x0 /var/folders/28/_tsmhg4172s_wy7vswfkzq9h0000gn/T/arduino_cache_261188/core/core_33a28a35d5be94a4487e04df0719a759.a(HardwareSerial.cpp.o)
 .text._ZN14HardwareSerial5beginEmh
                0x0000000000000000       0x78 /var/folders/28/_tsmhg4172s_wy7vswfkzq9h0000gn/T/arduino_cache_261188/core/core_33a28a35d5be94a4487e04df0719a759.a(HardwareSerial.cpp.o)
 .text._ZN14HardwareSerial5beginEm
                0x0000000000000000        0x6 /var/folders/28/_tsmhg4172s_wy7vswfkzq9h0000gn/T/arduino_cache_261188/core/core_33a28a35d5be94a4487e04df0719a759.a(HardwareSerial.cpp.o)
 .text._ZN14HardwareSerial3endEv
                0x0000000000000000        0x6 /var/folders/28/_tsmhg4172s_wy7vswfkzq9h0000gn/T/arduino_cache_261188/core/core_33a28a35d5be94a4487e04df0719a759.a(HardwareSerial.cpp.o)
 .text._ZN14HardwareSerial17availableForWriteEv
                0x0000000000000000        0x4 /var/folders/28/_tsmhg4172s_wy7vswfkzq9h0000gn/T/arduino_cache_261188/core/core_33a28a35d5be94a4487e04df0719a759.a(HardwareSerial.cpp.o)
 .rodata._ZTV6Stream
                0x0000000000000000       0x28 /var/folders/28/_tsmhg4172s_wy7vswfkzq9h0000gn/T/arduino_cache_261188/core/core_33a28a35d5be94a4487e04df0719a759.a(HardwareSerial.cpp.o)
 .text          0x0000000000000000        0x0 /var/folders/28/_tsmhg4172s_wy7vswfkzq9h0000gn/T/arduino_cache_261188/core/core_33a28a35d5be94a4487e04df0719a759.a(Print.cpp.o)
 .data          0x0000000000000000        0x0 /var/folders/28/_tsmhg4172s_wy7vswfkzq9h0000gn/T/arduino_cache_261188/core/core_33a28a35d5be94a4487e04df0719a759.a(Print.cpp.o)
 .bss           0x0000000000000000        0x0 /var/folders/28/_tsmhg4172s_wy7vswfkzq9h0000gn/T/arduino_cache_261188/core/core_33a28a35d5be94a4487e04df0719a759.a(Print.cpp.o)
 .text._ZN5Print5printERK6String
                0x0000000000000000       0x10 /var/folders/28/_tsmhg4172s_wy7vswfkzq9h0000gn/T/arduino_cache_261188/core/core_33a28a35d5be94a4487e04df0719a759.a(Print.cpp.o)
 .text._ZN5Print5printEc
                0x0000000000000000        0xa /var/folders/28/_tsmhg4172s_wy7vswfkzq9h0000gn/T/arduino_cache_261188/core/core_33a28a35d5be94a4487e04df0719a759.a(Print.cpp.o)
 .text._ZN5Print5printEPKc
                0x0000000000000000        0xa /var/folders/28/_tsmhg4172s_wy7vswfkzq9h0000gn/T/arduino_cache_261188/core/core_33a28a35d5be94a4487e04df0719a759.a(Print.cpp.o)
 .text._ZN5Print5printEPK19__FlashStringHelper
                0x0000000000000000        0x4 /var/folders/28/_tsmhg4172s_wy7vswfkzq9h0000gn/T/arduino_cache_261188/core/core_33a28a35d5be94a4487e04df0719a759.a(Print.cpp.o)
 .text._ZN5Print5printERK9Printable
                0x0000000000000000       0x10 /var/folders/28/_tsmhg4172s_wy7vswfkzq9h0000gn/T/arduino_cache_261188/core/core_33a28a35d5be94a4487e04df0719a759.a(Print.cpp.o)
 .text._ZN5Print7printlnEv
                0x0000000000000000       0x18 /var/folders/28/_tsmhg4172s_wy7vswfkzq9h0000gn/T/arduino_cache_261188/core/core_33a28a35d5be94a4487e04df0719a759.a(Print.cpp.o)
 .text._ZN5Print7printlnERK6String
                0x0000000000000000       0x14 /var/folders/28/_tsmhg4172s_wy7vswfkzq9h0000gn/T/arduino_cache_261188/core/core_33a28a35d5be94a4487e04df0719a759.a(Print.cpp.o)
 .text._ZN5Print7printlnEc
                0x0000000000000000       0x14 /var/folders/28/_tsmhg4172s_wy7vswfkzq9h0000gn/T/arduino_cache_261188/core/core_33a28a35d5be94a4487e04df0719a759.a(Print.cpp.o)
 .text._ZN5Print7printlnEPKc
                0x0000000000000000       0x14 /var/folders/28/_tsmhg4172s_wy7vswfkzq9h0000gn/T/arduino_cache_261188/core/core_33a28a35d5be94a4487e04df0719a759.a(Print.cpp.o)
 .text._ZN5Print7printlnEPK19__FlashStringHelper
                0x0000000000000000       0x14 /var/folders/28/_tsmhg4172s_wy7vswfkzq9h0000gn/T/arduino_cache_261188/core/core_33a28a35d5be94a4487e04df0719a759.a(Print.cpp.o)
 .text._ZN5Print7printlnERK9Printable
                0x0000000000000000       0x14 /var/folders/28/_tsmhg4172s_wy7vswfkzq9h0000gn/T/arduino_cache_261188/core/core_33a28a35d5be94a4487e04df0719a759.a(Print.cpp.o)
 .text._ZN5Print11printNumberEyh
                0x0000000000000000       0x84 /var/folders/28/_tsmhg4172s_wy7vswfkzq9h0000gn/T/arduino_cache_261188/core/core_33a28a35d5be94a4487e04df0719a759.a(Print.cpp.o)
 .text._ZN5Print5printExi
                0x0000000000000000       0x32 /var/folders/28/_tsmhg4172s_wy7vswfkzq9h0000gn/T/arduino_cache_261188/core/core_33a28a35d5be94a4487e04df0719a759.a(Print.cpp.o)
 .text._ZN5Print5printEii
                0x0000000000000000       0x12 /var/folders/28/_tsmhg4172s_wy7vswfkzq9h0000gn/T/arduino_cache_261188/core/core_33a28a35d5be94a4487e04df0719a759.a(Print.cpp.o)
 .text._ZN5Print7printlnEii
                0x0000000000000000       0x14 /var/folders/28/_tsmhg4172s_wy7vswfkzq9h0000gn/T/arduino_cache_261188/core/core_33a28a35d5be94a4487e04df0719a759.a(Print.cpp.o)
 .text._ZN5Print5printEli
                0x0000000000000000       0x12 /var/folders/28/_tsmhg4172s_wy7vswfkzq9h0000gn/T/arduino_cache_261188/core/core_33a28a35d5be94a4487e04df0719a759.a(Print.cpp.o)
 .text._ZN5Print7printlnEli
                0x0000000000000000       0x1c /var/folders/28/_tsmhg4172s_wy7vswfkzq9h0000gn/T/arduino_cache_261188/core/core_33a28a35d5be94a4487e04df0719a759.a(Print.cpp.o)
 .text._ZN5Print7printlnExi
                0x0000000000000000       0x1a /var/folders/28/_tsmhg4172s_wy7vswfkzq9h0000gn/T/arduino_cache_261188/core/core_33a28a35d5be94a4487e04df0719a759.a(Print.cpp.o)
 .text._ZN5Print5printEyi
                0x0000000000000000        0xa /var/folders/28/_tsmhg4172s_wy7vswfkzq9h0000gn/T/arduino_cache_261188/core/core_33a28a35d5be94a4487e04df0719a759.a(Print.cpp.o)
 .text._ZN5Print5printEhi
                0x0000000000000000       0x14 /var/folders/28/_tsmhg4172s_wy7vswfkzq9h0000gn/T/arduino_cache_261188/core/core_33a28a35d5be94a4487e04df0719a759.a(Print.cpp.o)
 .text._ZN5Print7printlnEhi
                0x0000000000000000       0x14 /var/folders/28/_tsmhg4172s_wy7vswfkzq9h0000gn/T/arduino_cache_261188/core/core_33a28a35d5be94a4487e04df0719a759.a(Print.cpp.o)
 .text._ZN5Print5printEji
                0x0000000000000000       0x14 /var/folders/28/_tsmhg4172s_wy7vswfkzq9h0000gn/T/arduino_cache_261188/core/core_33a28a35d5be94a4487e04df0719a759.a(Print.cpp.o)
 .text._ZN5Print7printlnEji
                0x0000000000000000       0x14 /var/folders/28/_tsmhg4172s_wy7vswfkzq9h0000gn/T/arduino_cache_261188/core/core_33a28a35d5be94a4487e04df0719a759.a(Print.cpp.o)
 .text._ZN5Print5printEmi
                0x0000000000000000       0x14 /var/folders/28/_tsmhg4172s_wy7vswfkzq9h0000gn/T/arduino_cache_261188/core/core_33a28a35d5be94a4487e04df0719a759.a(Print.cpp.o)
 .text._ZN5Print7printlnEmi
                0x0000000000000000       0x1e /var/folders/28/_tsmhg4172s_wy7vswfkzq9h0000gn/T/arduino_cache_261188/core/core_33a28a35d5be94a4487e04df0719a759.a(Print.cpp.o)
 .text._ZN5Print7printlnEyi
                0x0000000000000000       0x1c /var/folders/28/_tsmhg4172s_wy7vswfkzq9h0000gn/T/arduino_cache_261188/core/core_33a28a35d5be94a4487e04df0719a759.a(Print.cpp.o)
 .text._ZN5Print10printFloatEdh
                0x0000000000000000      0x158 /var/folders/28/_tsmhg4172s_wy7vswfkzq9h0000gn/T/arduino_cache_261188/core/core_33a28a35d5be94a4487e04df0719a759.a(Print.cpp.o)
 .text._ZN5Print5printEdi
                0x0000000000000000        0xa /var/folders/28/_tsmhg4172s_wy7vswfkzq9h0000gn/T/arduino_cache_261188/core/core_33a28a35d5be94a4487e04df0719a759.a(Print.cpp.o)
 .text._ZN5Print7printlnEdi
                0x0000000000000000       0x1c /var/folders/28/_tsmhg4172s_wy7vswfkzq9h0000gn/T/arduino_cache_261188/core/core_33a28a35d5be94a4487e04df0719a759.a(Print.cpp.o)
 .rodata._ZTV5Print
                0x0000000000000000       0x18 /var/folders/28/_tsmhg4172s_wy7vswfkzq9h0000gn/T/arduino_cache_261188/core/core_33a28a35d5be94a4487e04df0719a759.a(Print.cpp.o)
 .rodata.str1.1
                0x0000000000000000       0x11 /var/folders/28/_tsmhg4172s_wy7vswfkzq9h0000gn/T/arduino_cache_261188/core/core_33a28a35d5be94a4487e04df0719a759.a(Print.cpp.o)
 .text          0x0000000000000000        0x0 /var/folders/28/_tsmhg4172s_wy7vswfkzq9h0000gn/T/arduino_cache_261188/core/core_33a28a35d5be94a4487e04df0719a759.a(cxxabi-compat.cpp.o)
 .data          0x0000000000000000        0x0 /var/folders/28/_tsmhg4172s_wy7vswfkzq9h0000gn/T/arduino_cache_261188/core/core_33a28a35d5be94a4487e04df0719a759.a(cxxabi-compat.cpp.o)
 .bss           0x0000000000000000        0x0 /var/folders/28/_tsmhg4172s_wy7vswfkzq9h0000gn/T/arduino_cache_261188/core/core_33a28a35d5be94a4487e04df0719a759.a(cxxabi-compat.cpp.o)
 .text.__cxa_pure_virtual
                0x0000000000000000        0x2 /var/folders/28/_tsmhg4172s_wy7vswfkzq9h0000gn/T/arduino_cache_261188/core/core_33a28a35d5be94a4487e04df0719a759.a(cxxabi-compat.cpp.o)
 .text          0x0000000000000000        0x0 /var/folders/28/_tsmhg4172s_wy7vswfkzq9h0000gn/T/arduino_cache_261188/core/core_33a28a35d5be94a4487e04df0719a759.a(main.cpp.o)
 .data          0x0000000000000000        0x0 /var/folders/28/_tsmhg4172s_wy7vswfkzq9h0000gn/T/arduino_cache_261188/core/core_33a28a35d5be94a4487e04df0719a759.a(main.cpp.o)
 .bss           0x0000000000000000        0x0 /var/folders/28/_tsmhg4172s_wy7vswfkzq9h0000gn/T/arduino_cache_261188/core/core_33a28a35d5be94a4487e04df0719a759.a(main.cpp.o)
 .text          0x0000000000000000        0x0 /var/folders/28/_tsmhg4172s_wy7vswfkzq9h0000gn/T/arduino_cache_261188/core/core_33a28a35d5be94a4487e04df0719a759.a(wirish_digital_f1.cpp.o)
 .data          0x0000000000000000        0x0 /var/folders/28/_tsmhg4172s_wy7vswfkzq9h0000gn/T/arduino_cache_261188/core/core_33a28a35d5be94a4487e04df0719a759.a(wirish_digital_f1.cpp.o)
 .bss           0x0000000000000000        0x0 /var/folders/28/_tsmhg4172s_wy7vswfkzq9h0000gn/T/arduino_cache_261188/core/core_33a28a35d5be94a4487e04df0719a759.a(wirish_digital_f1.cpp.o)
 .group         0x0000000000000000        0x8 /var/folders/28/_tsmhg4172s_wy7vswfkzq9h0000gn/T/arduino_cache_261188/core/core_33a28a35d5be94a4487e04df0719a759.a(usb_serial.cpp.o)
 .text          0x0000000000000000        0x0 /var/folders/28/_tsmhg4172s_wy7vswfkzq9h0000gn/T/arduino_cache_261188/core/core_33a28a35d5be94a4487e04df0719a759.a(usb_serial.cpp.o)
 .data          0x0000000000000000        0x0 /var/folders/28/_tsmhg4172s_wy7vswfkzq9h0000gn/T/arduino_cache_261188/core/core_33a28a35d5be94a4487e04df0719a759.a(usb_serial.cpp.o)
 .bss           0x0000000000000000        0x0 /var/folders/28/_tsmhg4172s_wy7vswfkzq9h0000gn/T/arduino_cache_261188/core/core_33a28a35d5be94a4487e04df0719a759.a(usb_serial.cpp.o)
 .text._ZN9USBSerial5beginEm
                0x0000000000000000       0x10 /var/folders/28/_tsmhg4172s_wy7vswfkzq9h0000gn/T/arduino_cache_261188/core/core_33a28a35d5be94a4487e04df0719a759.a(usb_serial.cpp.o)
 .text._ZN9USBSerial5beginEmh
                0x0000000000000000       0x18 /var/folders/28/_tsmhg4172s_wy7vswfkzq9h0000gn/T/arduino_cache_261188/core/core_33a28a35d5be94a4487e04df0719a759.a(usb_serial.cpp.o)
 .text._ZN9USBSerial3endEv
                0x0000000000000000       0x20 /var/folders/28/_tsmhg4172s_wy7vswfkzq9h0000gn/T/arduino_cache_261188/core/core_33a28a35d5be94a4487e04df0719a759.a(usb_serial.cpp.o)
 .text._ZN9USBSerial9readBytesEPcRKj
                0x0000000000000000       0x40 /var/folders/28/_tsmhg4172s_wy7vswfkzq9h0000gn/T/arduino_cache_261188/core/core_33a28a35d5be94a4487e04df0719a759.a(usb_serial.cpp.o)
 .text._ZN9USBSerial7pendingEv
                0x0000000000000000        0xa /var/folders/28/_tsmhg4172s_wy7vswfkzq9h0000gn/T/arduino_cache_261188/core/core_33a28a35d5be94a4487e04df0719a759.a(usb_serial.cpp.o)
 .text._ZN9USBSerial6getDTREv
                0x0000000000000000        0x4 /var/folders/28/_tsmhg4172s_wy7vswfkzq9h0000gn/T/arduino_cache_261188/core/core_33a28a35d5be94a4487e04df0719a759.a(usb_serial.cpp.o)
 .text._ZN9USBSerial6getRTSEv
                0x0000000000000000        0x4 /var/folders/28/_tsmhg4172s_wy7vswfkzq9h0000gn/T/arduino_cache_261188/core/core_33a28a35d5be94a4487e04df0719a759.a(usb_serial.cpp.o)
 .rodata._ZTV6Stream
                0x0000000000000000       0x28 /var/folders/28/_tsmhg4172s_wy7vswfkzq9h0000gn/T/arduino_cache_261188/core/core_33a28a35d5be94a4487e04df0719a759.a(usb_serial.cpp.o)
 .text          0x0000000000000000        0x0 /var/folders/28/_tsmhg4172s_wy7vswfkzq9h0000gn/T/arduino_cache_261188/core/core_33a28a35d5be94a4487e04df0719a759.a(wirish_digital.cpp.o)
 .data          0x0000000000000000        0x0 /var/folders/28/_tsmhg4172s_wy7vswfkzq9h0000gn/T/arduino_cache_261188/core/core_33a28a35d5be94a4487e04df0719a759.a(wirish_digital.cpp.o)
 .bss           0x0000000000000000        0x0 /var/folders/28/_tsmhg4172s_wy7vswfkzq9h0000gn/T/arduino_cache_261188/core/core_33a28a35d5be94a4487e04df0719a759.a(wirish_digital.cpp.o)
 .text._Z11digitalReadh
                0x0000000000000000       0x2c /var/folders/28/_tsmhg4172s_wy7vswfkzq9h0000gn/T/arduino_cache_261188/core/core_33a28a35d5be94a4487e04df0719a759.a(wirish_digital.cpp.o)
 .text          0x0000000000000000        0x0 /var/folders/28/_tsmhg4172s_wy7vswfkzq9h0000gn/T/arduino_cache_261188/core/core_33a28a35d5be94a4487e04df0719a759.a(wirish_time.cpp.o)
 .data          0x0000000000000000        0x0 /var/folders/28/_tsmhg4172s_wy7vswfkzq9h0000gn/T/arduino_cache_261188/core/core_33a28a35d5be94a4487e04df0719a759.a(wirish_time.cpp.o)
 .bss           0x0000000000000000        0x0 /var/folders/28/_tsmhg4172s_wy7vswfkzq9h0000gn/T/arduino_cache_261188/core/core_33a28a35d5be94a4487e04df0719a759.a(wirish_time.cpp.o)
 .text._Z17delayMicrosecondsm
                0x0000000000000000        0xe /var/folders/28/_tsmhg4172s_wy7vswfkzq9h0000gn/T/arduino_cache_261188/core/core_33a28a35d5be94a4487e04df0719a759.a(wirish_time.cpp.o)
 .text          0x0000000000000000        0x0 /var/folders/28/_tsmhg4172s_wy7vswfkzq9h0000gn/T/arduino_cache_261188/core/core_33a28a35d5be94a4487e04df0719a759.a(hooks.c.o)
 .data          0x0000000000000000        0x0 /var/folders/28/_tsmhg4172s_wy7vswfkzq9h0000gn/T/arduino_cache_261188/core/core_33a28a35d5be94a4487e04df0719a759.a(hooks.c.o)
 .bss           0x0000000000000000        0x0 /var/folders/28/_tsmhg4172s_wy7vswfkzq9h0000gn/T/arduino_cache_261188/core/core_33a28a35d5be94a4487e04df0719a759.a(hooks.c.o)
 .text          0x0000000000000000        0x0 /var/folders/28/_tsmhg4172s_wy7vswfkzq9h0000gn/T/arduino_cache_261188/core/core_33a28a35d5be94a4487e04df0719a759.a(bkp_f1.c.o)
 .data          0x0000000000000000        0x0 /var/folders/28/_tsmhg4172s_wy7vswfkzq9h0000gn/T/arduino_cache_261188/core/core_33a28a35d5be94a4487e04df0719a759.a(bkp_f1.c.o)
 .bss           0x0000000000000000        0x0 /var/folders/28/_tsmhg4172s_wy7vswfkzq9h0000gn/T/arduino_cache_261188/core/core_33a28a35d5be94a4487e04df0719a759.a(bkp_f1.c.o)
 .text.bkp_read
                0x0000000000000000       0x30 /var/folders/28/_tsmhg4172s_wy7vswfkzq9h0000gn/T/arduino_cache_261188/core/core_33a28a35d5be94a4487e04df0719a759.a(bkp_f1.c.o)
 .data.bkp      0x0000000000000000        0x4 /var/folders/28/_tsmhg4172s_wy7vswfkzq9h0000gn/T/arduino_cache_261188/core/core_33a28a35d5be94a4487e04df0719a759.a(bkp_f1.c.o)
 .data.BKP      0x0000000000000000        0x4 /var/folders/28/_tsmhg4172s_wy7vswfkzq9h0000gn/T/arduino_cache_261188/core/core_33a28a35d5be94a4487e04df0719a759.a(bkp_f1.c.o)
 .text          0x0000000000000000        0x0 /var/folders/28/_tsmhg4172s_wy7vswfkzq9h0000gn/T/arduino_cache_261188/core/core_33a28a35d5be94a4487e04df0719a759.a(dma.c.o)
 .data          0x0000000000000000        0x0 /var/folders/28/_tsmhg4172s_wy7vswfkzq9h0000gn/T/arduino_cache_261188/core/core_33a28a35d5be94a4487e04df0719a759.a(dma.c.o)
 .bss           0x0000000000000000        0x0 /var/folders/28/_tsmhg4172s_wy7vswfkzq9h0000gn/T/arduino_cache_261188/core/core_33a28a35d5be94a4487e04df0719a759.a(dma.c.o)
 .text.dma_init
                0x0000000000000000        0x6 /var/folders/28/_tsmhg4172s_wy7vswfkzq9h0000gn/T/arduino_cache_261188/core/core_33a28a35d5be94a4487e04df0719a759.a(dma.c.o)
 .text._dma_addr_type
                0x0000000000000000       0x38 /var/folders/28/_tsmhg4172s_wy7vswfkzq9h0000gn/T/arduino_cache_261188/core/core_33a28a35d5be94a4487e04df0719a759.a(dma.c.o)
 .rodata.str1.1
                0x0000000000000000       0x73 /var/folders/28/_tsmhg4172s_wy7vswfkzq9h0000gn/T/arduino_cache_261188/core/core_33a28a35d5be94a4487e04df0719a759.a(dma.c.o)
 .text          0x0000000000000000        0x0 /var/folders/28/_tsmhg4172s_wy7vswfkzq9h0000gn/T/arduino_cache_261188/core/core_33a28a35d5be94a4487e04df0719a759.a(gpio.c.o)
 .data          0x0000000000000000        0x0 /var/folders/28/_tsmhg4172s_wy7vswfkzq9h0000gn/T/arduino_cache_261188/core/core_33a28a35d5be94a4487e04df0719a759.a(gpio.c.o)
 .bss           0x0000000000000000        0x0 /var/folders/28/_tsmhg4172s_wy7vswfkzq9h0000gn/T/arduino_cache_261188/core/core_33a28a35d5be94a4487e04df0719a759.a(gpio.c.o)
 .text          0x0000000000000000        0x0 /var/folders/28/_tsmhg4172s_wy7vswfkzq9h0000gn/T/arduino_cache_261188/core/core_33a28a35d5be94a4487e04df0719a759.a(i2c.c.o)
 .data          0x0000000000000000        0x0 /var/folders/28/_tsmhg4172s_wy7vswfkzq9h0000gn/T/arduino_cache_261188/core/core_33a28a35d5be94a4487e04df0719a759.a(i2c.c.o)
 .bss           0x0000000000000000        0x0 /var/folders/28/_tsmhg4172s_wy7vswfkzq9h0000gn/T/arduino_cache_261188/core/core_33a28a35d5be94a4487e04df0719a759.a(i2c.c.o)
 .text.delay_us.constprop.5
                0x0000000000000000        0xa /var/folders/28/_tsmhg4172s_wy7vswfkzq9h0000gn/T/arduino_cache_261188/core/core_33a28a35d5be94a4487e04df0719a759.a(i2c.c.o)
 .text.i2c_bus_reset
                0x0000000000000000       0xb2 /var/folders/28/_tsmhg4172s_wy7vswfkzq9h0000gn/T/arduino_cache_261188/core/core_33a28a35d5be94a4487e04df0719a759.a(i2c.c.o)
 .text.i2c_init
                0x0000000000000000       0x18 /var/folders/28/_tsmhg4172s_wy7vswfkzq9h0000gn/T/arduino_cache_261188/core/core_33a28a35d5be94a4487e04df0719a759.a(i2c.c.o)
 .text.i2c_master_enable
                0x0000000000000000       0xf0 /var/folders/28/_tsmhg4172s_wy7vswfkzq9h0000gn/T/arduino_cache_261188/core/core_33a28a35d5be94a4487e04df0719a759.a(i2c.c.o)
 .text.i2c_master_xfer
                0x0000000000000000       0x7c /var/folders/28/_tsmhg4172s_wy7vswfkzq9h0000gn/T/arduino_cache_261188/core/core_33a28a35d5be94a4487e04df0719a759.a(i2c.c.o)
 .text          0x0000000000000000        0x0 /var/folders/28/_tsmhg4172s_wy7vswfkzq9h0000gn/T/arduino_cache_261188/core/core_33a28a35d5be94a4487e04df0719a759.a(iwdg.c.o)
 .data          0x0000000000000000        0x0 /var/folders/28/_tsmhg4172s_wy7vswfkzq9h0000gn/T/arduino_cache_261188/core/core_33a28a35d5be94a4487e04df0719a759.a(iwdg.c.o)
 .bss           0x0000000000000000        0x0 /var/folders/28/_tsmhg4172s_wy7vswfkzq9h0000gn/T/arduino_cache_261188/core/core_33a28a35d5be94a4487e04df0719a759.a(iwdg.c.o)
 .text.iwdg_feed
                0x0000000000000000       0x10 /var/folders/28/_tsmhg4172s_wy7vswfkzq9h0000gn/T/arduino_cache_261188/core/core_33a28a35d5be94a4487e04df0719a759.a(iwdg.c.o)
 .text          0x0000000000000000        0x0 /var/folders/28/_tsmhg4172s_wy7vswfkzq9h0000gn/T/arduino_cache_261188/core/core_33a28a35d5be94a4487e04df0719a759.a(usart.c.o)
 .data          0x0000000000000000        0x0 /var/folders/28/_tsmhg4172s_wy7vswfkzq9h0000gn/T/arduino_cache_261188/core/core_33a28a35d5be94a4487e04df0719a759.a(usart.c.o)
 .bss           0x0000000000000000        0x0 /var/folders/28/_tsmhg4172s_wy7vswfkzq9h0000gn/T/arduino_cache_261188/core/core_33a28a35d5be94a4487e04df0719a759.a(usart.c.o)
 .text.usart_init
                0x0000000000000000       0x4c /var/folders/28/_tsmhg4172s_wy7vswfkzq9h0000gn/T/arduino_cache_261188/core/core_33a28a35d5be94a4487e04df0719a759.a(usart.c.o)
 .text.usart_enable
                0x0000000000000000       0x14 /var/folders/28/_tsmhg4172s_wy7vswfkzq9h0000gn/T/arduino_cache_261188/core/core_33a28a35d5be94a4487e04df0719a759.a(usart.c.o)
 .text.usart_disable
                0x0000000000000000       0x38 /var/folders/28/_tsmhg4172s_wy7vswfkzq9h0000gn/T/arduino_cache_261188/core/core_33a28a35d5be94a4487e04df0719a759.a(usart.c.o)
 .text.usart_rx
                0x0000000000000000       0x58 /var/folders/28/_tsmhg4172s_wy7vswfkzq9h0000gn/T/arduino_cache_261188/core/core_33a28a35d5be94a4487e04df0719a759.a(usart.c.o)
 .text          0x0000000000000000      0x370 /Users/paulgallagher/Library/Arduino15/packages/arduino/tools/arm-none-eabi-gcc/4.8.3-2014q1/bin/../lib/gcc/arm-none-eabi/4.8.3/armv7-m/libgcc.a(_arm_addsubdf3.o)
 .data          0x0000000000000000        0x0 /Users/paulgallagher/Library/Arduino15/packages/arduino/tools/arm-none-eabi-gcc/4.8.3-2014q1/bin/../lib/gcc/arm-none-eabi/4.8.3/armv7-m/libgcc.a(_arm_addsubdf3.o)
 .bss           0x0000000000000000        0x0 /Users/paulgallagher/Library/Arduino15/packages/arduino/tools/arm-none-eabi-gcc/4.8.3-2014q1/bin/../lib/gcc/arm-none-eabi/4.8.3/armv7-m/libgcc.a(_arm_addsubdf3.o)
 .text          0x0000000000000000      0x424 /Users/paulgallagher/Library/Arduino15/packages/arduino/tools/arm-none-eabi-gcc/4.8.3-2014q1/bin/../lib/gcc/arm-none-eabi/4.8.3/armv7-m/libgcc.a(_arm_muldivdf3.o)
 .data          0x0000000000000000        0x0 /Users/paulgallagher/Library/Arduino15/packages/arduino/tools/arm-none-eabi-gcc/4.8.3-2014q1/bin/../lib/gcc/arm-none-eabi/4.8.3/armv7-m/libgcc.a(_arm_muldivdf3.o)
 .bss           0x0000000000000000        0x0 /Users/paulgallagher/Library/Arduino15/packages/arduino/tools/arm-none-eabi-gcc/4.8.3-2014q1/bin/../lib/gcc/arm-none-eabi/4.8.3/armv7-m/libgcc.a(_arm_muldivdf3.o)
 .text          0x0000000000000000      0x110 /Users/paulgallagher/Library/Arduino15/packages/arduino/tools/arm-none-eabi-gcc/4.8.3-2014q1/bin/../lib/gcc/arm-none-eabi/4.8.3/armv7-m/libgcc.a(_arm_cmpdf2.o)
 .data          0x0000000000000000        0x0 /Users/paulgallagher/Library/Arduino15/packages/arduino/tools/arm-none-eabi-gcc/4.8.3-2014q1/bin/../lib/gcc/arm-none-eabi/4.8.3/armv7-m/libgcc.a(_arm_cmpdf2.o)
 .bss           0x0000000000000000        0x0 /Users/paulgallagher/Library/Arduino15/packages/arduino/tools/arm-none-eabi-gcc/4.8.3-2014q1/bin/../lib/gcc/arm-none-eabi/4.8.3/armv7-m/libgcc.a(_arm_cmpdf2.o)
 .text          0x0000000000000000       0x50 /Users/paulgallagher/Library/Arduino15/packages/arduino/tools/arm-none-eabi-gcc/4.8.3-2014q1/bin/../lib/gcc/arm-none-eabi/4.8.3/armv7-m/libgcc.a(_arm_fixdfsi.o)
 .data          0x0000000000000000        0x0 /Users/paulgallagher/Library/Arduino15/packages/arduino/tools/arm-none-eabi-gcc/4.8.3-2014q1/bin/../lib/gcc/arm-none-eabi/4.8.3/armv7-m/libgcc.a(_arm_fixdfsi.o)
 .bss           0x0000000000000000        0x0 /Users/paulgallagher/Library/Arduino15/packages/arduino/tools/arm-none-eabi-gcc/4.8.3-2014q1/bin/../lib/gcc/arm-none-eabi/4.8.3/armv7-m/libgcc.a(_arm_fixdfsi.o)
 .text          0x0000000000000000       0x2c /Users/paulgallagher/Library/Arduino15/packages/arduino/tools/arm-none-eabi-gcc/4.8.3-2014q1/bin/../lib/gcc/arm-none-eabi/4.8.3/armv7-m/libgcc.a(_aeabi_uldivmod.o)
 .data          0x0000000000000000        0x0 /Users/paulgallagher/Library/Arduino15/packages/arduino/tools/arm-none-eabi-gcc/4.8.3-2014q1/bin/../lib/gcc/arm-none-eabi/4.8.3/armv7-m/libgcc.a(_aeabi_uldivmod.o)
 .bss           0x0000000000000000        0x0 /Users/paulgallagher/Library/Arduino15/packages/arduino/tools/arm-none-eabi-gcc/4.8.3-2014q1/bin/../lib/gcc/arm-none-eabi/4.8.3/armv7-m/libgcc.a(_aeabi_uldivmod.o)
 .text          0x0000000000000000       0x30 /Users/paulgallagher/Library/Arduino15/packages/arduino/tools/arm-none-eabi-gcc/4.8.3-2014q1/bin/../lib/gcc/arm-none-eabi/4.8.3/armv7-m/libgcc.a(_fixdfdi.o)
 .data          0x0000000000000000        0x0 /Users/paulgallagher/Library/Arduino15/packages/arduino/tools/arm-none-eabi-gcc/4.8.3-2014q1/bin/../lib/gcc/arm-none-eabi/4.8.3/armv7-m/libgcc.a(_fixdfdi.o)
 .bss           0x0000000000000000        0x0 /Users/paulgallagher/Library/Arduino15/packages/arduino/tools/arm-none-eabi-gcc/4.8.3-2014q1/bin/../lib/gcc/arm-none-eabi/4.8.3/armv7-m/libgcc.a(_fixdfdi.o)
 .text          0x0000000000000000       0x44 /Users/paulgallagher/Library/Arduino15/packages/arduino/tools/arm-none-eabi-gcc/4.8.3-2014q1/bin/../lib/gcc/arm-none-eabi/4.8.3/armv7-m/libgcc.a(_fixunsdfdi.o)
 .data          0x0000000000000000        0x0 /Users/paulgallagher/Library/Arduino15/packages/arduino/tools/arm-none-eabi-gcc/4.8.3-2014q1/bin/../lib/gcc/arm-none-eabi/4.8.3/armv7-m/libgcc.a(_fixunsdfdi.o)
 .bss           0x0000000000000000        0x0 /Users/paulgallagher/Library/Arduino15/packages/arduino/tools/arm-none-eabi-gcc/4.8.3-2014q1/bin/../lib/gcc/arm-none-eabi/4.8.3/armv7-m/libgcc.a(_fixunsdfdi.o)
 .text          0x0000000000000000       0x60 /Users/paulgallagher/Library/Arduino15/packages/arduino/tools/arm-none-eabi-gcc/4.8.3-2014q1/bin/../lib/gcc/arm-none-eabi/4.8.3/armv7-m/libgcc.a(bpabi.o)
 .data          0x0000000000000000        0x0 /Users/paulgallagher/Library/Arduino15/packages/arduino/tools/arm-none-eabi-gcc/4.8.3-2014q1/bin/../lib/gcc/arm-none-eabi/4.8.3/armv7-m/libgcc.a(bpabi.o)
 .bss           0x0000000000000000        0x0 /Users/paulgallagher/Library/Arduino15/packages/arduino/tools/arm-none-eabi-gcc/4.8.3-2014q1/bin/../lib/gcc/arm-none-eabi/4.8.3/armv7-m/libgcc.a(bpabi.o)
 .text          0x0000000000000000        0x4 /Users/paulgallagher/Library/Arduino15/packages/arduino/tools/arm-none-eabi-gcc/4.8.3-2014q1/bin/../lib/gcc/arm-none-eabi/4.8.3/armv7-m/libgcc.a(_dvmd_tls.o)
 .data          0x0000000000000000        0x0 /Users/paulgallagher/Library/Arduino15/packages/arduino/tools/arm-none-eabi-gcc/4.8.3-2014q1/bin/../lib/gcc/arm-none-eabi/4.8.3/armv7-m/libgcc.a(_dvmd_tls.o)
 .bss           0x0000000000000000        0x0 /Users/paulgallagher/Library/Arduino15/packages/arduino/tools/arm-none-eabi-gcc/4.8.3-2014q1/bin/../lib/gcc/arm-none-eabi/4.8.3/armv7-m/libgcc.a(_dvmd_tls.o)
 .text          0x0000000000000000       0x40 /Users/paulgallagher/Library/Arduino15/packages/arduino/tools/arm-none-eabi-gcc/4.8.3-2014q1/bin/../lib/gcc/arm-none-eabi/4.8.3/armv7-m/libgcc.a(_arm_fixunsdfsi.o)
 .data          0x0000000000000000        0x0 /Users/paulgallagher/Library/Arduino15/packages/arduino/tools/arm-none-eabi-gcc/4.8.3-2014q1/bin/../lib/gcc/arm-none-eabi/4.8.3/armv7-m/libgcc.a(_arm_fixunsdfsi.o)
 .bss           0x0000000000000000        0x0 /Users/paulgallagher/Library/Arduino15/packages/arduino/tools/arm-none-eabi-gcc/4.8.3-2014q1/bin/../lib/gcc/arm-none-eabi/4.8.3/armv7-m/libgcc.a(_arm_fixunsdfsi.o)
 .text          0x0000000000000000      0x2a0 /Users/paulgallagher/Library/Arduino15/packages/arduino/tools/arm-none-eabi-gcc/4.8.3-2014q1/bin/../lib/gcc/arm-none-eabi/4.8.3/armv7-m/libgcc.a(_divdi3.o)
 .data          0x0000000000000000        0x0 /Users/paulgallagher/Library/Arduino15/packages/arduino/tools/arm-none-eabi-gcc/4.8.3-2014q1/bin/../lib/gcc/arm-none-eabi/4.8.3/armv7-m/libgcc.a(_divdi3.o)
 .bss           0x0000000000000000        0x0 /Users/paulgallagher/Library/Arduino15/packages/arduino/tools/arm-none-eabi-gcc/4.8.3-2014q1/bin/../lib/gcc/arm-none-eabi/4.8.3/armv7-m/libgcc.a(_divdi3.o)
 .ARM.extab     0x0000000000000000        0x0 /Users/paulgallagher/Library/Arduino15/packages/arduino/tools/arm-none-eabi-gcc/4.8.3-2014q1/bin/../lib/gcc/arm-none-eabi/4.8.3/armv7-m/libgcc.a(_divdi3.o)
 .ARM.exidx     0x0000000000000000        0x8 /Users/paulgallagher/Library/Arduino15/packages/arduino/tools/arm-none-eabi-gcc/4.8.3-2014q1/bin/../lib/gcc/arm-none-eabi/4.8.3/armv7-m/libgcc.a(_divdi3.o)
 .text          0x0000000000000000      0x290 /Users/paulgallagher/Library/Arduino15/packages/arduino/tools/arm-none-eabi-gcc/4.8.3-2014q1/bin/../lib/gcc/arm-none-eabi/4.8.3/armv7-m/libgcc.a(_udivdi3.o)
 .data          0x0000000000000000        0x0 /Users/paulgallagher/Library/Arduino15/packages/arduino/tools/arm-none-eabi-gcc/4.8.3-2014q1/bin/../lib/gcc/arm-none-eabi/4.8.3/armv7-m/libgcc.a(_udivdi3.o)
 .bss           0x0000000000000000        0x0 /Users/paulgallagher/Library/Arduino15/packages/arduino/tools/arm-none-eabi-gcc/4.8.3-2014q1/bin/../lib/gcc/arm-none-eabi/4.8.3/armv7-m/libgcc.a(_udivdi3.o)
 .ARM.extab     0x0000000000000000        0x0 /Users/paulgallagher/Library/Arduino15/packages/arduino/tools/arm-none-eabi-gcc/4.8.3-2014q1/bin/../lib/gcc/arm-none-eabi/4.8.3/armv7-m/libgcc.a(_udivdi3.o)
 .ARM.exidx     0x0000000000000000        0x8 /Users/paulgallagher/Library/Arduino15/packages/arduino/tools/arm-none-eabi-gcc/4.8.3-2014q1/bin/../lib/gcc/arm-none-eabi/4.8.3/armv7-m/libgcc.a(_udivdi3.o)
 .text          0x0000000000000000        0x0 /Users/paulgallagher/Library/Arduino15/packages/arduino/tools/arm-none-eabi-gcc/4.8.3-2014q1/bin/../lib/gcc/arm-none-eabi/4.8.3/../../../../arm-none-eabi/lib/armv7-m/libc.a(lib_a-errno.o)
 .data          0x0000000000000000        0x0 /Users/paulgallagher/Library/Arduino15/packages/arduino/tools/arm-none-eabi-gcc/4.8.3-2014q1/bin/../lib/gcc/arm-none-eabi/4.8.3/../../../../arm-none-eabi/lib/armv7-m/libc.a(lib_a-errno.o)
 .bss           0x0000000000000000        0x0 /Users/paulgallagher/Library/Arduino15/packages/arduino/tools/arm-none-eabi-gcc/4.8.3-2014q1/bin/../lib/gcc/arm-none-eabi/4.8.3/../../../../arm-none-eabi/lib/armv7-m/libc.a(lib_a-errno.o)
 .text.__errno  0x0000000000000000        0xc /Users/paulgallagher/Library/Arduino15/packages/arduino/tools/arm-none-eabi-gcc/4.8.3-2014q1/bin/../lib/gcc/arm-none-eabi/4.8.3/../../../../arm-none-eabi/lib/armv7-m/libc.a(lib_a-errno.o)
 .text          0x0000000000000000        0x0 /Users/paulgallagher/Library/Arduino15/packages/arduino/tools/arm-none-eabi-gcc/4.8.3-2014q1/bin/../lib/gcc/arm-none-eabi/4.8.3/../../../../arm-none-eabi/lib/armv7-m/libc.a(lib_a-exit.o)
 .data          0x0000000000000000        0x0 /Users/paulgallagher/Library/Arduino15/packages/arduino/tools/arm-none-eabi-gcc/4.8.3-2014q1/bin/../lib/gcc/arm-none-eabi/4.8.3/../../../../arm-none-eabi/lib/armv7-m/libc.a(lib_a-exit.o)
 .bss           0x0000000000000000        0x0 /Users/paulgallagher/Library/Arduino15/packages/arduino/tools/arm-none-eabi-gcc/4.8.3-2014q1/bin/../lib/gcc/arm-none-eabi/4.8.3/../../../../arm-none-eabi/lib/armv7-m/libc.a(lib_a-exit.o)
 .text          0x0000000000000000        0x0 /Users/paulgallagher/Library/Arduino15/packages/arduino/tools/arm-none-eabi-gcc/4.8.3-2014q1/bin/../lib/gcc/arm-none-eabi/4.8.3/../../../../arm-none-eabi/lib/armv7-m/libc.a(lib_a-impure.o)
 .data          0x0000000000000000        0x0 /Users/paulgallagher/Library/Arduino15/packages/arduino/tools/arm-none-eabi-gcc/4.8.3-2014q1/bin/../lib/gcc/arm-none-eabi/4.8.3/../../../../arm-none-eabi/lib/armv7-m/libc.a(lib_a-impure.o)
 .bss           0x0000000000000000        0x0 /Users/paulgallagher/Library/Arduino15/packages/arduino/tools/arm-none-eabi-gcc/4.8.3-2014q1/bin/../lib/gcc/arm-none-eabi/4.8.3/../../../../arm-none-eabi/lib/armv7-m/libc.a(lib_a-impure.o)
 .data._impure_ptr
                0x0000000000000000        0x4 /Users/paulgallagher/Library/Arduino15/packages/arduino/tools/arm-none-eabi-gcc/4.8.3-2014q1/bin/../lib/gcc/arm-none-eabi/4.8.3/../../../../arm-none-eabi/lib/armv7-m/libc.a(lib_a-impure.o)
 .text          0x0000000000000000        0x0 /Users/paulgallagher/Library/Arduino15/packages/arduino/tools/arm-none-eabi-gcc/4.8.3-2014q1/bin/../lib/gcc/arm-none-eabi/4.8.3/../../../../arm-none-eabi/lib/armv7-m/libc.a(lib_a-init.o)
 .data          0x0000000000000000        0x0 /Users/paulgallagher/Library/Arduino15/packages/arduino/tools/arm-none-eabi-gcc/4.8.3-2014q1/bin/../lib/gcc/arm-none-eabi/4.8.3/../../../../arm-none-eabi/lib/armv7-m/libc.a(lib_a-init.o)
 .bss           0x0000000000000000        0x0 /Users/paulgallagher/Library/Arduino15/packages/arduino/tools/arm-none-eabi-gcc/4.8.3-2014q1/bin/../lib/gcc/arm-none-eabi/4.8.3/../../../../arm-none-eabi/lib/armv7-m/libc.a(lib_a-init.o)
 .text          0x0000000000000000        0x0 /Users/paulgallagher/Library/Arduino15/packages/arduino/tools/arm-none-eabi-gcc/4.8.3-2014q1/bin/../lib/gcc/arm-none-eabi/4.8.3/../../../../arm-none-eabi/lib/armv7-m/libc.a(lib_a-memset.o)
 .data          0x0000000000000000        0x0 /Users/paulgallagher/Library/Arduino15/packages/arduino/tools/arm-none-eabi-gcc/4.8.3-2014q1/bin/../lib/gcc/arm-none-eabi/4.8.3/../../../../arm-none-eabi/lib/armv7-m/libc.a(lib_a-memset.o)
 .bss           0x0000000000000000        0x0 /Users/paulgallagher/Library/Arduino15/packages/arduino/tools/arm-none-eabi-gcc/4.8.3-2014q1/bin/../lib/gcc/arm-none-eabi/4.8.3/../../../../arm-none-eabi/lib/armv7-m/libc.a(lib_a-memset.o)
 .text.memset   0x0000000000000000       0x94 /Users/paulgallagher/Library/Arduino15/packages/arduino/tools/arm-none-eabi-gcc/4.8.3-2014q1/bin/../lib/gcc/arm-none-eabi/4.8.3/../../../../arm-none-eabi/lib/armv7-m/libc.a(lib_a-memset.o)
 .text          0x0000000000000000        0x0 /Users/paulgallagher/Library/Arduino15/packages/arduino/tools/arm-none-eabi-gcc/4.8.3-2014q1/bin/../lib/gcc/arm-none-eabi/4.8.3/../../../../arm-none-eabi/lib/armv7-m/libc.a(lib_a-strlen.o)
 .data          0x0000000000000000        0x0 /Users/paulgallagher/Library/Arduino15/packages/arduino/tools/arm-none-eabi-gcc/4.8.3-2014q1/bin/../lib/gcc/arm-none-eabi/4.8.3/../../../../arm-none-eabi/lib/armv7-m/libc.a(lib_a-strlen.o)
 .bss           0x0000000000000000        0x0 /Users/paulgallagher/Library/Arduino15/packages/arduino/tools/arm-none-eabi-gcc/4.8.3-2014q1/bin/../lib/gcc/arm-none-eabi/4.8.3/../../../../arm-none-eabi/lib/armv7-m/libc.a(lib_a-strlen.o)
 .text          0x0000000000000000        0x0 /Users/paulgallagher/Library/Arduino15/packages/arduino/tools/arm-none-eabi-gcc/4.8.3-2014q1/bin/../lib/gcc/arm-none-eabi/4.8.3/../../../../arm-none-eabi/lib/armv7-m/libc.a(lib_a-__call_atexit.o)
 .data          0x0000000000000000        0x0 /Users/paulgallagher/Library/Arduino15/packages/arduino/tools/arm-none-eabi-gcc/4.8.3-2014q1/bin/../lib/gcc/arm-none-eabi/4.8.3/../../../../arm-none-eabi/lib/armv7-m/libc.a(lib_a-__call_atexit.o)
 .bss           0x0000000000000000        0x0 /Users/paulgallagher/Library/Arduino15/packages/arduino/tools/arm-none-eabi-gcc/4.8.3-2014q1/bin/../lib/gcc/arm-none-eabi/4.8.3/../../../../arm-none-eabi/lib/armv7-m/libc.a(lib_a-__call_atexit.o)
 .text          0x0000000000000000        0x0 /Users/paulgallagher/Library/Arduino15/packages/arduino/tools/arm-none-eabi-gcc/4.8.3-2014q1/bin/../lib/gcc/arm-none-eabi/4.8.3/../../../../arm-none-eabi/lib/armv7-m/libc.a(lib_a-atexit.o)
 .data          0x0000000000000000        0x0 /Users/paulgallagher/Library/Arduino15/packages/arduino/tools/arm-none-eabi-gcc/4.8.3-2014q1/bin/../lib/gcc/arm-none-eabi/4.8.3/../../../../arm-none-eabi/lib/armv7-m/libc.a(lib_a-atexit.o)
 .bss           0x0000000000000000        0x0 /Users/paulgallagher/Library/Arduino15/packages/arduino/tools/arm-none-eabi-gcc/4.8.3-2014q1/bin/../lib/gcc/arm-none-eabi/4.8.3/../../../../arm-none-eabi/lib/armv7-m/libc.a(lib_a-atexit.o)
 .text          0x0000000000000000        0x0 /Users/paulgallagher/Library/Arduino15/packages/arduino/tools/arm-none-eabi-gcc/4.8.3-2014q1/bin/../lib/gcc/arm-none-eabi/4.8.3/../../../../arm-none-eabi/lib/armv7-m/libc.a(lib_a-fini.o)
 .data          0x0000000000000000        0x0 /Users/paulgallagher/Library/Arduino15/packages/arduino/tools/arm-none-eabi-gcc/4.8.3-2014q1/bin/../lib/gcc/arm-none-eabi/4.8.3/../../../../arm-none-eabi/lib/armv7-m/libc.a(lib_a-fini.o)
 .bss           0x0000000000000000        0x0 /Users/paulgallagher/Library/Arduino15/packages/arduino/tools/arm-none-eabi-gcc/4.8.3-2014q1/bin/../lib/gcc/arm-none-eabi/4.8.3/../../../../arm-none-eabi/lib/armv7-m/libc.a(lib_a-fini.o)
 .text          0x0000000000000000        0x0 /Users/paulgallagher/Library/Arduino15/packages/arduino/tools/arm-none-eabi-gcc/4.8.3-2014q1/bin/../lib/gcc/arm-none-eabi/4.8.3/../../../../arm-none-eabi/lib/armv7-m/libc.a(lib_a-__atexit.o)
 .data          0x0000000000000000        0x0 /Users/paulgallagher/Library/Arduino15/packages/arduino/tools/arm-none-eabi-gcc/4.8.3-2014q1/bin/../lib/gcc/arm-none-eabi/4.8.3/../../../../arm-none-eabi/lib/armv7-m/libc.a(lib_a-__atexit.o)
 .bss           0x0000000000000000        0x0 /Users/paulgallagher/Library/Arduino15/packages/arduino/tools/arm-none-eabi-gcc/4.8.3-2014q1/bin/../lib/gcc/arm-none-eabi/4.8.3/../../../../arm-none-eabi/lib/armv7-m/libc.a(lib_a-__atexit.o)
 .text          0x0000000000000000        0x0 /Users/paulgallagher/Library/Arduino15/packages/arduino/tools/arm-none-eabi-gcc/4.8.3-2014q1/bin/../lib/gcc/arm-none-eabi/4.8.3/armv7-m/crtend.o
 .data          0x0000000000000000        0x0 /Users/paulgallagher/Library/Arduino15/packages/arduino/tools/arm-none-eabi-gcc/4.8.3-2014q1/bin/../lib/gcc/arm-none-eabi/4.8.3/armv7-m/crtend.o
 .bss           0x0000000000000000        0x0 /Users/paulgallagher/Library/Arduino15/packages/arduino/tools/arm-none-eabi-gcc/4.8.3-2014q1/bin/../lib/gcc/arm-none-eabi/4.8.3/armv7-m/crtend.o
 .eh_frame      0x0000000000000000        0x4 /Users/paulgallagher/Library/Arduino15/packages/arduino/tools/arm-none-eabi-gcc/4.8.3-2014q1/bin/../lib/gcc/arm-none-eabi/4.8.3/armv7-m/crtend.o
 .jcr           0x0000000000000000        0x4 /Users/paulgallagher/Library/Arduino15/packages/arduino/tools/arm-none-eabi-gcc/4.8.3-2014q1/bin/../lib/gcc/arm-none-eabi/4.8.3/armv7-m/crtend.o
 .text          0x0000000000000000        0x0 /Users/paulgallagher/Library/Arduino15/packages/arduino/tools/arm-none-eabi-gcc/4.8.3-2014q1/bin/../lib/gcc/arm-none-eabi/4.8.3/armv7-m/crtn.o
 .data          0x0000000000000000        0x0 /Users/paulgallagher/Library/Arduino15/packages/arduino/tools/arm-none-eabi-gcc/4.8.3-2014q1/bin/../lib/gcc/arm-none-eabi/4.8.3/armv7-m/crtn.o
 .bss           0x0000000000000000        0x0 /Users/paulgallagher/Library/Arduino15/packages/arduino/tools/arm-none-eabi-gcc/4.8.3-2014q1/bin/../lib/gcc/arm-none-eabi/4.8.3/armv7-m/crtn.o

Memory Configuration

Name             Origin             Length             Attributes
ram              0x0000000020000000 0x0000000000005000 xrw
rom              0x0000000008000000 0x0000000000010000 xr
*default*        0x0000000000000000 0xffffffffffffffff

Linker script and memory map

LOAD /Users/paulgallagher/Library/Arduino15/packages/arduino/tools/arm-none-eabi-gcc/4.8.3-2014q1/bin/../lib/gcc/arm-none-eabi/4.8.3/armv7-m/crti.o
LOAD /Users/paulgallagher/Library/Arduino15/packages/arduino/tools/arm-none-eabi-gcc/4.8.3-2014q1/bin/../lib/gcc/arm-none-eabi/4.8.3/armv7-m/crtbegin.o
LOAD /Users/paulgallagher/Library/Arduino15/packages/arduino/tools/arm-none-eabi-gcc/4.8.3-2014q1/bin/../lib/gcc/arm-none-eabi/4.8.3/../../../../arm-none-eabi/lib/armv7-m/crt0.o
LOAD /Users/paulgallagher/Library/Arduino15/packages/arduino/tools/arm-none-eabi-gcc/4.8.3-2014q1/bin/../lib/gcc/arm-none-eabi/4.8.3/armv7-m/libgcc.a
START GROUP
LOAD /var/folders/28/_tsmhg4172s_wy7vswfkzq9h0000gn/T/arduino_build_279421/sketch/DebugWithStlink.ino.cpp.o
LOAD /var/folders/28/_tsmhg4172s_wy7vswfkzq9h0000gn/T/arduino_build_279421/core/wirish/start.S.o
LOAD /var/folders/28/_tsmhg4172s_wy7vswfkzq9h0000gn/T/arduino_build_279421/core/wirish/start_c.c.o
LOAD /var/folders/28/_tsmhg4172s_wy7vswfkzq9h0000gn/T/arduino_build_279421/core/wirish/syscalls.c.o
LOAD /var/folders/28/_tsmhg4172s_wy7vswfkzq9h0000gn/T/arduino_build_279421/core/board.cpp.o
LOAD /var/folders/28/_tsmhg4172s_wy7vswfkzq9h0000gn/T/arduino_build_279421/core/wirish/boards.cpp.o
LOAD /var/folders/28/_tsmhg4172s_wy7vswfkzq9h0000gn/T/arduino_build_279421/core/wirish/boards_setup.cpp.o
LOAD /var/folders/28/_tsmhg4172s_wy7vswfkzq9h0000gn/T/arduino_cache_261188/core/core_33a28a35d5be94a4487e04df0719a759.a
END GROUP
LOAD /Users/paulgallagher/Library/Arduino15/packages/arduino/tools/arm-none-eabi-gcc/4.8.3-2014q1/bin/../lib/gcc/arm-none-eabi/4.8.3/../../../../arm-none-eabi/lib/armv7-m/libstdc++.a
LOAD /Users/paulgallagher/Library/Arduino15/packages/arduino/tools/arm-none-eabi-gcc/4.8.3-2014q1/bin/../lib/gcc/arm-none-eabi/4.8.3/../../../../arm-none-eabi/lib/armv7-m/libm.a
START GROUP
LOAD /Users/paulgallagher/Library/Arduino15/packages/arduino/tools/arm-none-eabi-gcc/4.8.3-2014q1/bin/../lib/gcc/arm-none-eabi/4.8.3/armv7-m/libgcc.a
LOAD /Users/paulgallagher/Library/Arduino15/packages/arduino/tools/arm-none-eabi-gcc/4.8.3-2014q1/bin/../lib/gcc/arm-none-eabi/4.8.3/../../../../arm-none-eabi/lib/armv7-m/libc.a
END GROUP
LOAD /Users/paulgallagher/Library/Arduino15/packages/arduino/tools/arm-none-eabi-gcc/4.8.3-2014q1/bin/../lib/gcc/arm-none-eabi/4.8.3/armv7-m/crtend.o
LOAD /Users/paulgallagher/Library/Arduino15/packages/arduino/tools/arm-none-eabi-gcc/4.8.3-2014q1/bin/../lib/gcc/arm-none-eabi/4.8.3/armv7-m/crtn.o
START GROUP
LOAD /Users/paulgallagher/Library/Arduino15/packages/arduino/tools/arm-none-eabi-gcc/4.8.3-2014q1/bin/../lib/gcc/arm-none-eabi/4.8.3/armv7-m/libgcc.a
LOAD /Users/paulgallagher/Library/Arduino15/packages/arduino/tools/arm-none-eabi-gcc/4.8.3-2014q1/bin/../lib/gcc/arm-none-eabi/4.8.3/../../../../arm-none-eabi/lib/armv7-m/libc.a
LOAD /Users/paulgallagher/Library/Arduino15/packages/arduino/tools/arm-none-eabi-gcc/4.8.3-2014q1/bin/../lib/gcc/arm-none-eabi/4.8.3/../../../../arm-none-eabi/lib/armv7-m/libm.a
END GROUP
START GROUP
LOAD /Users/paulgallagher/Library/Arduino15/packages/arduino/tools/arm-none-eabi-gcc/4.8.3-2014q1/bin/../lib/gcc/arm-none-eabi/4.8.3/../../../../arm-none-eabi/lib/armv7-m/libnosys.a
END GROUP
                0x0000000020005000                PROVIDE (__msp_init, (ORIGIN (ram) + 0x5000))
                0x0000000008000180                PROVIDE (__exc_reset, __start__)

.text           0x0000000008000000     0x2e24
                0x0000000008000000                __text_start__ = .
 *(.stm32.interrupt_vector)
 .stm32.interrupt_vector
                0x0000000008000000       0xec /var/folders/28/_tsmhg4172s_wy7vswfkzq9h0000gn/T/arduino_cache_261188/core/core_33a28a35d5be94a4487e04df0719a759.a(vector_table.S.o)
                0x0000000008000000                __stm32_vector_table
 *(.text .text.* .gnu.linkonce.t.*)
 .text          0x00000000080000ec       0x54 /Users/paulgallagher/Library/Arduino15/packages/arduino/tools/arm-none-eabi-gcc/4.8.3-2014q1/bin/../lib/gcc/arm-none-eabi/4.8.3/armv7-m/crtbegin.o
 .text._Z5setupv
                0x0000000008000140        0x8 /var/folders/28/_tsmhg4172s_wy7vswfkzq9h0000gn/T/arduino_build_279421/sketch/DebugWithStlink.ino.cpp.o
                0x0000000008000140                setup()
 .text._Z4loopv
                0x0000000008000148       0x38 /var/folders/28/_tsmhg4172s_wy7vswfkzq9h0000gn/T/arduino_build_279421/sketch/DebugWithStlink.ino.cpp.o
                0x0000000008000148                loop()
 .text          0x0000000008000180       0x10 /var/folders/28/_tsmhg4172s_wy7vswfkzq9h0000gn/T/arduino_build_279421/core/wirish/start.S.o
                0x0000000008000180                __start__
 .text.start_c  0x0000000008000190       0x64 /var/folders/28/_tsmhg4172s_wy7vswfkzq9h0000gn/T/arduino_build_279421/core/wirish/start_c.c.o
                0x0000000008000190                start_c
 .text._exit    0x00000000080001f4        0x2 /var/folders/28/_tsmhg4172s_wy7vswfkzq9h0000gn/T/arduino_build_279421/core/wirish/syscalls.c.o
                0x00000000080001f4                _exit
 .text._Z9boardInitv
                0x00000000080001f6        0x2 /var/folders/28/_tsmhg4172s_wy7vswfkzq9h0000gn/T/arduino_build_279421/core/board.cpp.o
                0x00000000080001f6                boardInit()
 .text.startup._GLOBAL__sub_I__Z9boardInitv
                0x00000000080001f8       0x48 /var/folders/28/_tsmhg4172s_wy7vswfkzq9h0000gn/T/arduino_build_279421/core/board.cpp.o
 .text._ZL18adc_default_configP7adc_dev
                0x0000000008000240       0x1c /var/folders/28/_tsmhg4172s_wy7vswfkzq9h0000gn/T/arduino_build_279421/core/wirish/boards.cpp.o
 .text._ZL20timer_default_configP9timer_dev
                0x000000000800025c       0x9e /var/folders/28/_tsmhg4172s_wy7vswfkzq9h0000gn/T/arduino_build_279421/core/wirish/boards.cpp.o
 *fill*         0x00000000080002fa        0x2 
 .text._Z4initv
                0x00000000080002fc       0xbc /var/folders/28/_tsmhg4172s_wy7vswfkzq9h0000gn/T/arduino_build_279421/core/wirish/boards.cpp.o
                0x00000000080002fc                init()
 .text._ZN6wirish4priv15board_reset_pllEv
                0x00000000080003b8        0x2 /var/folders/28/_tsmhg4172s_wy7vswfkzq9h0000gn/T/arduino_build_279421/core/wirish/boards_setup.cpp.o
                0x00000000080003b8                wirish::priv::board_reset_pll()
 .text._ZN6wirish4priv28board_setup_clock_prescalersEv
                0x00000000080003ba       0x2e /var/folders/28/_tsmhg4172s_wy7vswfkzq9h0000gn/T/arduino_build_279421/core/wirish/boards_setup.cpp.o
                0x00000000080003ba                wirish::priv::board_setup_clock_prescalers()
 .text._ZN6wirish4priv16board_setup_gpioEv
                0x00000000080003e8        0x4 /var/folders/28/_tsmhg4172s_wy7vswfkzq9h0000gn/T/arduino_build_279421/core/wirish/boards_setup.cpp.o
                0x00000000080003e8                wirish::priv::board_setup_gpio()
 .text._ZN6wirish4priv15board_setup_usbEv
                0x00000000080003ec       0x54 /var/folders/28/_tsmhg4172s_wy7vswfkzq9h0000gn/T/arduino_build_279421/core/wirish/boards_setup.cpp.o
                0x00000000080003ec                wirish::priv::board_setup_usb()
 .text._ZN6wirish4priv11series_initEv
                0x0000000008000440        0x4 /var/folders/28/_tsmhg4172s_wy7vswfkzq9h0000gn/T/arduino_build_279421/core/wirish/boards_setup.cpp.o
                0x0000000008000440                wirish::priv::series_init()
 *fill*         0x0000000008000444        0xc 
 .text          0x0000000008000450       0x60 /var/folders/28/_tsmhg4172s_wy7vswfkzq9h0000gn/T/arduino_cache_261188/core/core_33a28a35d5be94a4487e04df0719a759.a(exc.S.o)
                0x0000000008000450                __exc_nmi
                0x0000000008000454                __exc_hardfault
                0x0000000008000458                __exc_memmanage
                0x000000000800045c                __exc_busfault
                0x0000000008000460                __exc_usagefault
 .text          0x00000000080004b0        0x2 /var/folders/28/_tsmhg4172s_wy7vswfkzq9h0000gn/T/arduino_cache_261188/core/core_33a28a35d5be94a4487e04df0719a759.a(isrs.S.o)
                0x00000000080004b0                __irq_rcc
                0x00000000080004b0                __exc_debug_monitor
                0x00000000080004b0                __exc_svc
                0x00000000080004b0                __irq_can_rx1
                0x00000000080004b0                __irq_spi2
                0x00000000080004b0                __irq_can_sce
                0x00000000080004b0                __irq_pvd
                0x00000000080004b0                __irq_tamper
                0x00000000080004b0                __default_handler
                0x00000000080004b0                __irq_wwdg
                0x00000000080004b0                __stm32reservedexception10
                0x00000000080004b0                __irq_flash
                0x00000000080004b0                __stm32reservedexception13
                0x00000000080004b0                __irq_rtc
                0x00000000080004b0                __irq_spi1
                0x00000000080004b0                __stm32reservedexception7
                0x00000000080004b0                __irq_usb_hp_can_tx
                0x00000000080004b0                __irq_rtcalarm
                0x00000000080004b0                __stm32reservedexception8
                0x00000000080004b0                __exc_pendsv
                0x00000000080004b0                __irq_usbwakeup
                0x00000000080004b0                __stm32reservedexception9
 .text.adc_init
                0x00000000080004b2       0x14 /var/folders/28/_tsmhg4172s_wy7vswfkzq9h0000gn/T/arduino_cache_261188/core/core_33a28a35d5be94a4487e04df0719a759.a(adc.c.o)
                0x00000000080004b2                adc_init
 .text.adc_set_extsel
                0x00000000080004c6       0x12 /var/folders/28/_tsmhg4172s_wy7vswfkzq9h0000gn/T/arduino_cache_261188/core/core_33a28a35d5be94a4487e04df0719a759.a(adc.c.o)
                0x00000000080004c6                adc_set_extsel
 .text.adc_set_sample_rate
                0x00000000080004d8       0x30 /var/folders/28/_tsmhg4172s_wy7vswfkzq9h0000gn/T/arduino_cache_261188/core/core_33a28a35d5be94a4487e04df0719a759.a(adc.c.o)
                0x00000000080004d8                adc_set_sample_rate
 .text.__irq_adc
                0x0000000008000508       0x50 /var/folders/28/_tsmhg4172s_wy7vswfkzq9h0000gn/T/arduino_cache_261188/core/core_33a28a35d5be94a4487e04df0719a759.a(adc_f1.c.o)
                0x0000000008000508                __irq_adc
 .text.adc_calibrate
                0x0000000008000558       0x24 /var/folders/28/_tsmhg4172s_wy7vswfkzq9h0000gn/T/arduino_cache_261188/core/core_33a28a35d5be94a4487e04df0719a759.a(adc_f1.c.o)
                0x0000000008000558                adc_calibrate
 .text.adc_set_prescaler
                0x000000000800057c        0x8 /var/folders/28/_tsmhg4172s_wy7vswfkzq9h0000gn/T/arduino_cache_261188/core/core_33a28a35d5be94a4487e04df0719a759.a(adc_f1.c.o)
                0x000000000800057c                adc_set_prescaler
 .text.adc_foreach
                0x0000000008000584       0x1c /var/folders/28/_tsmhg4172s_wy7vswfkzq9h0000gn/T/arduino_cache_261188/core/core_33a28a35d5be94a4487e04df0719a759.a(adc_f1.c.o)
                0x0000000008000584                adc_foreach
 .text.adc_enable_single_swstart
                0x00000000080005a0       0x36 /var/folders/28/_tsmhg4172s_wy7vswfkzq9h0000gn/T/arduino_cache_261188/core/core_33a28a35d5be94a4487e04df0719a759.a(adc_f1.c.o)
                0x00000000080005a0                adc_enable_single_swstart
 *fill*         0x00000000080005d6        0x2 
 .text.__irq_dma1_channel1
                0x00000000080005d8       0x18 /var/folders/28/_tsmhg4172s_wy7vswfkzq9h0000gn/T/arduino_cache_261188/core/core_33a28a35d5be94a4487e04df0719a759.a(dma_f1.c.o)
                0x00000000080005d8                __irq_dma1_channel1
 .text.__irq_dma1_channel2
                0x00000000080005f0       0x18 /var/folders/28/_tsmhg4172s_wy7vswfkzq9h0000gn/T/arduino_cache_261188/core/core_33a28a35d5be94a4487e04df0719a759.a(dma_f1.c.o)
                0x00000000080005f0                __irq_dma1_channel2
 .text.__irq_dma1_channel3
                0x0000000008000608       0x1c /var/folders/28/_tsmhg4172s_wy7vswfkzq9h0000gn/T/arduino_cache_261188/core/core_33a28a35d5be94a4487e04df0719a759.a(dma_f1.c.o)
                0x0000000008000608                __irq_dma1_channel3
 .text.__irq_dma1_channel4
                0x0000000008000624       0x1c /var/folders/28/_tsmhg4172s_wy7vswfkzq9h0000gn/T/arduino_cache_261188/core/core_33a28a35d5be94a4487e04df0719a759.a(dma_f1.c.o)
                0x0000000008000624                __irq_dma1_channel4
 .text.__irq_dma1_channel5
                0x0000000008000640       0x1c /var/folders/28/_tsmhg4172s_wy7vswfkzq9h0000gn/T/arduino_cache_261188/core/core_33a28a35d5be94a4487e04df0719a759.a(dma_f1.c.o)
                0x0000000008000640                __irq_dma1_channel5
 .text.__irq_dma1_channel6
                0x000000000800065c       0x1c /var/folders/28/_tsmhg4172s_wy7vswfkzq9h0000gn/T/arduino_cache_261188/core/core_33a28a35d5be94a4487e04df0719a759.a(dma_f1.c.o)
                0x000000000800065c                __irq_dma1_channel6
 .text.__irq_dma1_channel7
                0x0000000008000678       0x1c /var/folders/28/_tsmhg4172s_wy7vswfkzq9h0000gn/T/arduino_cache_261188/core/core_33a28a35d5be94a4487e04df0719a759.a(dma_f1.c.o)
                0x0000000008000678                __irq_dma1_channel7
 .text.__irq_exti0
                0x0000000008000694       0x20 /var/folders/28/_tsmhg4172s_wy7vswfkzq9h0000gn/T/arduino_cache_261188/core/core_33a28a35d5be94a4487e04df0719a759.a(exti.c.o)
                0x0000000008000694                __irq_exti0
 .text.__irq_exti1
                0x00000000080006b4       0x20 /var/folders/28/_tsmhg4172s_wy7vswfkzq9h0000gn/T/arduino_cache_261188/core/core_33a28a35d5be94a4487e04df0719a759.a(exti.c.o)
                0x00000000080006b4                __irq_exti1
 .text.__irq_exti2
                0x00000000080006d4       0x20 /var/folders/28/_tsmhg4172s_wy7vswfkzq9h0000gn/T/arduino_cache_261188/core/core_33a28a35d5be94a4487e04df0719a759.a(exti.c.o)
                0x00000000080006d4                __irq_exti2
 .text.__irq_exti3
                0x00000000080006f4       0x20 /var/folders/28/_tsmhg4172s_wy7vswfkzq9h0000gn/T/arduino_cache_261188/core/core_33a28a35d5be94a4487e04df0719a759.a(exti.c.o)
                0x00000000080006f4                __irq_exti3
 .text.__irq_exti4
                0x0000000008000714       0x20 /var/folders/28/_tsmhg4172s_wy7vswfkzq9h0000gn/T/arduino_cache_261188/core/core_33a28a35d5be94a4487e04df0719a759.a(exti.c.o)
                0x0000000008000714                __irq_exti4
 .text.__irq_exti9_5
                0x0000000008000734       0x44 /var/folders/28/_tsmhg4172s_wy7vswfkzq9h0000gn/T/arduino_cache_261188/core/core_33a28a35d5be94a4487e04df0719a759.a(exti.c.o)
                0x0000000008000734                __irq_exti9_5
 .text.__irq_exti15_10
                0x0000000008000778       0x44 /var/folders/28/_tsmhg4172s_wy7vswfkzq9h0000gn/T/arduino_cache_261188/core/core_33a28a35d5be94a4487e04df0719a759.a(exti.c.o)
                0x0000000008000778                __irq_exti15_10
 .text.flash_set_latency
                0x00000000080007bc       0x14 /var/folders/28/_tsmhg4172s_wy7vswfkzq9h0000gn/T/arduino_cache_261188/core/core_33a28a35d5be94a4487e04df0719a759.a(flash.c.o)
                0x00000000080007bc                flash_set_latency
 .text.gpio_init_all
                0x00000000080007d0       0x30 /var/folders/28/_tsmhg4172s_wy7vswfkzq9h0000gn/T/arduino_cache_261188/core/core_33a28a35d5be94a4487e04df0719a759.a(gpio_f1.c.o)
                0x00000000080007d0                gpio_init_all
 .text.gpio_set_mode
                0x0000000008000800       0x50 /var/folders/28/_tsmhg4172s_wy7vswfkzq9h0000gn/T/arduino_cache_261188/core/core_33a28a35d5be94a4487e04df0719a759.a(gpio_f1.c.o)
                0x0000000008000800                gpio_set_mode
 .text.afio_init
                0x0000000008000850       0x12 /var/folders/28/_tsmhg4172s_wy7vswfkzq9h0000gn/T/arduino_cache_261188/core/core_33a28a35d5be94a4487e04df0719a759.a(gpio_f1.c.o)
                0x0000000008000850                afio_init
 *fill*         0x0000000008000862        0x2 
 .text.__irq_i2c1_ev
                0x0000000008000864        0xc /var/folders/28/_tsmhg4172s_wy7vswfkzq9h0000gn/T/arduino_cache_261188/core/core_33a28a35d5be94a4487e04df0719a759.a(i2c_f1.c.o)
                0x0000000008000864                __irq_i2c1_ev
 .text.__irq_i2c2_ev
                0x0000000008000870        0xc /var/folders/28/_tsmhg4172s_wy7vswfkzq9h0000gn/T/arduino_cache_261188/core/core_33a28a35d5be94a4487e04df0719a759.a(i2c_f1.c.o)
                0x0000000008000870                __irq_i2c2_ev
 .text.__irq_i2c1_er
                0x000000000800087c        0xc /var/folders/28/_tsmhg4172s_wy7vswfkzq9h0000gn/T/arduino_cache_261188/core/core_33a28a35d5be94a4487e04df0719a759.a(i2c_f1.c.o)
                0x000000000800087c                __irq_i2c1_er
 .text.__irq_i2c2_er
                0x0000000008000888        0xc /var/folders/28/_tsmhg4172s_wy7vswfkzq9h0000gn/T/arduino_cache_261188/core/core_33a28a35d5be94a4487e04df0719a759.a(i2c_f1.c.o)
                0x0000000008000888                __irq_i2c2_er
 .text._i2c_irq_priority_fixup
                0x0000000008000894       0x1c /var/folders/28/_tsmhg4172s_wy7vswfkzq9h0000gn/T/arduino_cache_261188/core/core_33a28a35d5be94a4487e04df0719a759.a(i2c_f1.c.o)
                0x0000000008000894                _i2c_irq_priority_fixup
 .text.nvic_irq_set_priority
                0x00000000080008b0       0x28 /var/folders/28/_tsmhg4172s_wy7vswfkzq9h0000gn/T/arduino_cache_261188/core/core_33a28a35d5be94a4487e04df0719a759.a(nvic.c.o)
                0x00000000080008b0                nvic_irq_set_priority
 .text.nvic_init
                0x00000000080008d8       0x30 /var/folders/28/_tsmhg4172s_wy7vswfkzq9h0000gn/T/arduino_cache_261188/core/core_33a28a35d5be94a4487e04df0719a759.a(nvic.c.o)
                0x00000000080008d8                nvic_init
 .text.nvic_sys_reset
                0x0000000008000908       0x1c /var/folders/28/_tsmhg4172s_wy7vswfkzq9h0000gn/T/arduino_cache_261188/core/core_33a28a35d5be94a4487e04df0719a759.a(nvic.c.o)
                0x0000000008000908                nvic_sys_reset
 .text.rcc_dev_clk
                0x0000000008000924        0xc /var/folders/28/_tsmhg4172s_wy7vswfkzq9h0000gn/T/arduino_cache_261188/core/core_33a28a35d5be94a4487e04df0719a759.a(rcc.c.o)
                0x0000000008000924                rcc_dev_clk
 .text.rcc_switch_sysclk
                0x0000000008000930       0x20 /var/folders/28/_tsmhg4172s_wy7vswfkzq9h0000gn/T/arduino_cache_261188/core/core_33a28a35d5be94a4487e04df0719a759.a(rcc.c.o)
                0x0000000008000930                rcc_switch_sysclk
 .text.rcc_turn_on_clk
                0x0000000008000950       0x1a /var/folders/28/_tsmhg4172s_wy7vswfkzq9h0000gn/T/arduino_cache_261188/core/core_33a28a35d5be94a4487e04df0719a759.a(rcc.c.o)
                0x0000000008000950                rcc_turn_on_clk
 .text.rcc_turn_off_clk
                0x000000000800096a       0x1c /var/folders/28/_tsmhg4172s_wy7vswfkzq9h0000gn/T/arduino_cache_261188/core/core_33a28a35d5be94a4487e04df0719a759.a(rcc.c.o)
                0x000000000800096a                rcc_turn_off_clk
 .text.rcc_is_clk_on
                0x0000000008000986       0x1e /var/folders/28/_tsmhg4172s_wy7vswfkzq9h0000gn/T/arduino_cache_261188/core/core_33a28a35d5be94a4487e04df0719a759.a(rcc.c.o)
                0x0000000008000986                rcc_is_clk_on
 .text.rcc_is_clk_ready
                0x00000000080009a4       0x18 /var/folders/28/_tsmhg4172s_wy7vswfkzq9h0000gn/T/arduino_cache_261188/core/core_33a28a35d5be94a4487e04df0719a759.a(rcc.c.o)
                0x00000000080009a4                rcc_is_clk_ready
 .text.rcc_configure_pll
                0x00000000080009bc       0x38 /var/folders/28/_tsmhg4172s_wy7vswfkzq9h0000gn/T/arduino_cache_261188/core/core_33a28a35d5be94a4487e04df0719a759.a(rcc_f1.c.o)
                0x00000000080009bc                rcc_configure_pll
 .text.rcc_clk_enable
                0x00000000080009f4       0x30 /var/folders/28/_tsmhg4172s_wy7vswfkzq9h0000gn/T/arduino_cache_261188/core/core_33a28a35d5be94a4487e04df0719a759.a(rcc_f1.c.o)
                0x00000000080009f4                rcc_clk_enable
 .text.rcc_reset_dev
                0x0000000008000a24       0x34 /var/folders/28/_tsmhg4172s_wy7vswfkzq9h0000gn/T/arduino_cache_261188/core/core_33a28a35d5be94a4487e04df0719a759.a(rcc_f1.c.o)
                0x0000000008000a24                rcc_reset_dev
 .text.rcc_set_prescaler
                0x0000000008000a58       0x20 /var/folders/28/_tsmhg4172s_wy7vswfkzq9h0000gn/T/arduino_cache_261188/core/core_33a28a35d5be94a4487e04df0719a759.a(rcc_f1.c.o)
                0x0000000008000a58                rcc_set_prescaler
 .text.rcc_clk_disable
                0x0000000008000a78       0x30 /var/folders/28/_tsmhg4172s_wy7vswfkzq9h0000gn/T/arduino_cache_261188/core/core_33a28a35d5be94a4487e04df0719a759.a(rcc_f1.c.o)
                0x0000000008000a78                rcc_clk_disable
 .text.systick_init
                0x0000000008000aa8       0x10 /var/folders/28/_tsmhg4172s_wy7vswfkzq9h0000gn/T/arduino_cache_261188/core/core_33a28a35d5be94a4487e04df0719a759.a(systick.c.o)
                0x0000000008000aa8                systick_init
 .text.__exc_systick
                0x0000000008000ab8       0x1c /var/folders/28/_tsmhg4172s_wy7vswfkzq9h0000gn/T/arduino_cache_261188/core/core_33a28a35d5be94a4487e04df0719a759.a(systick.c.o)
                0x0000000008000ab8                __exc_systick
 .text.timer_oc_set_mode
                0x0000000008000ad4       0x3a /var/folders/28/_tsmhg4172s_wy7vswfkzq9h0000gn/T/arduino_cache_261188/core/core_33a28a35d5be94a4487e04df0719a759.a(timer.c.o)
 .text.timer_cc_enable
                0x0000000008000b0e       0x1c /var/folders/28/_tsmhg4172s_wy7vswfkzq9h0000gn/T/arduino_cache_261188/core/core_33a28a35d5be94a4487e04df0719a759.a(timer.c.o)
 *fill*         0x0000000008000b2a        0x2 
 .text.timer_foreach
                0x0000000008000b2c       0x28 /var/folders/28/_tsmhg4172s_wy7vswfkzq9h0000gn/T/arduino_cache_261188/core/core_33a28a35d5be94a4487e04df0719a759.a(timer.c.o)
                0x0000000008000b2c                timer_foreach
 .text.timer_init
                0x0000000008000b54       0x14 /var/folders/28/_tsmhg4172s_wy7vswfkzq9h0000gn/T/arduino_cache_261188/core/core_33a28a35d5be94a4487e04df0719a759.a(timer.c.o)
                0x0000000008000b54                timer_init
 .text.timer_has_cc_channel
                0x0000000008000b68       0x50 /var/folders/28/_tsmhg4172s_wy7vswfkzq9h0000gn/T/arduino_cache_261188/core/core_33a28a35d5be94a4487e04df0719a759.a(timer.c.o)
                0x0000000008000b68                timer_has_cc_channel
 .text.timer_detach_interrupt
                0x0000000008000bb8       0x1e /var/folders/28/_tsmhg4172s_wy7vswfkzq9h0000gn/T/arduino_cache_261188/core/core_33a28a35d5be94a4487e04df0719a759.a(timer.c.o)
                0x0000000008000bb8                timer_detach_interrupt
 .text.input_capture_mode
                0x0000000008000bd6       0x1a /var/folders/28/_tsmhg4172s_wy7vswfkzq9h0000gn/T/arduino_cache_261188/core/core_33a28a35d5be94a4487e04df0719a759.a(timer.c.o)
                0x0000000008000bd6                input_capture_mode
 .text.timer_set_mode
                0x0000000008000bf0       0xcc /var/folders/28/_tsmhg4172s_wy7vswfkzq9h0000gn/T/arduino_cache_261188/core/core_33a28a35d5be94a4487e04df0719a759.a(timer.c.o)
                0x0000000008000bf0                timer_set_mode
 .text.__irq_tim1_brk
                0x0000000008000cbc       0x24 /var/folders/28/_tsmhg4172s_wy7vswfkzq9h0000gn/T/arduino_cache_261188/core/core_33a28a35d5be94a4487e04df0719a759.a(timer.c.o)
                0x0000000008000cbc                __irq_tim1_brk
 .text.__irq_tim1_up
                0x0000000008000ce0       0x24 /var/folders/28/_tsmhg4172s_wy7vswfkzq9h0000gn/T/arduino_cache_261188/core/core_33a28a35d5be94a4487e04df0719a759.a(timer.c.o)
                0x0000000008000ce0                __irq_tim1_up
 .text.__irq_tim1_trg_com
                0x0000000008000d04       0x38 /var/folders/28/_tsmhg4172s_wy7vswfkzq9h0000gn/T/arduino_cache_261188/core/core_33a28a35d5be94a4487e04df0719a759.a(timer.c.o)
                0x0000000008000d04                __irq_tim1_trg_com
 .text.__irq_tim1_cc
                0x0000000008000d3c       0x54 /var/folders/28/_tsmhg4172s_wy7vswfkzq9h0000gn/T/arduino_cache_261188/core/core_33a28a35d5be94a4487e04df0719a759.a(timer.c.o)
                0x0000000008000d3c                __irq_tim1_cc
 .text.__irq_tim2
                0x0000000008000d90       0x70 /var/folders/28/_tsmhg4172s_wy7vswfkzq9h0000gn/T/arduino_cache_261188/core/core_33a28a35d5be94a4487e04df0719a759.a(timer.c.o)
                0x0000000008000d90                __irq_tim2
 .text.__irq_tim3
                0x0000000008000e00       0x70 /var/folders/28/_tsmhg4172s_wy7vswfkzq9h0000gn/T/arduino_cache_261188/core/core_33a28a35d5be94a4487e04df0719a759.a(timer.c.o)
                0x0000000008000e00                __irq_tim3
 .text.__irq_tim4
                0x0000000008000e70       0x70 /var/folders/28/_tsmhg4172s_wy7vswfkzq9h0000gn/T/arduino_cache_261188/core/core_33a28a35d5be94a4487e04df0719a759.a(timer.c.o)
                0x0000000008000e70                __irq_tim4
 .text.rb_remove
                0x0000000008000ee0       0x24 /var/folders/28/_tsmhg4172s_wy7vswfkzq9h0000gn/T/arduino_cache_261188/core/core_33a28a35d5be94a4487e04df0719a759.a(usart_f1.c.o)
 .text.rb_push_insert
                0x0000000008000f04       0x52 /var/folders/28/_tsmhg4172s_wy7vswfkzq9h0000gn/T/arduino_cache_261188/core/core_33a28a35d5be94a4487e04df0719a759.a(usart_f1.c.o)
 *fill*         0x0000000008000f56        0x2 
 .text.__irq_usart1
                0x0000000008000f58       0x54 /var/folders/28/_tsmhg4172s_wy7vswfkzq9h0000gn/T/arduino_cache_261188/core/core_33a28a35d5be94a4487e04df0719a759.a(usart_f1.c.o)
                0x0000000008000f58                __irq_usart1
 .text.__irq_usart2
                0x0000000008000fac       0x54 /var/folders/28/_tsmhg4172s_wy7vswfkzq9h0000gn/T/arduino_cache_261188/core/core_33a28a35d5be94a4487e04df0719a759.a(usart_f1.c.o)
                0x0000000008000fac                __irq_usart2
 .text.__irq_usart3
                0x0000000008001000       0x54 /var/folders/28/_tsmhg4172s_wy7vswfkzq9h0000gn/T/arduino_cache_261188/core/core_33a28a35d5be94a4487e04df0719a759.a(usart_f1.c.o)
                0x0000000008001000                __irq_usart3
 .text.usb_resume
                0x0000000008001054       0xb4 /var/folders/28/_tsmhg4172s_wy7vswfkzq9h0000gn/T/arduino_cache_261188/core/core_33a28a35d5be94a4487e04df0719a759.a(usb.c.o)
 .text.usb_init_usblib
                0x0000000008001108       0x48 /var/folders/28/_tsmhg4172s_wy7vswfkzq9h0000gn/T/arduino_cache_261188/core/core_33a28a35d5be94a4487e04df0719a759.a(usb.c.o)
                0x0000000008001108                usb_init_usblib
 .text.__irq_usb_lp_can_rx0
                0x0000000008001150      0x1f0 /var/folders/28/_tsmhg4172s_wy7vswfkzq9h0000gn/T/arduino_cache_261188/core/core_33a28a35d5be94a4487e04df0719a759.a(usb.c.o)
                0x0000000008001150                __irq_usb_lp_can_rx0
 .text.usb_set_ep_rx_stat
                0x0000000008001340       0x22 /var/folders/28/_tsmhg4172s_wy7vswfkzq9h0000gn/T/arduino_cache_261188/core/core_33a28a35d5be94a4487e04df0719a759.a(usb_cdcacm.c.o)
 *fill*         0x0000000008001362        0x2 
 .text.vcomGetSetLineCoding
                0x0000000008001364       0x18 /var/folders/28/_tsmhg4172s_wy7vswfkzq9h0000gn/T/arduino_cache_261188/core/core_33a28a35d5be94a4487e04df0719a759.a(usb_cdcacm.c.o)
 .text.usbDataSetup
                0x000000000800137c       0x54 /var/folders/28/_tsmhg4172s_wy7vswfkzq9h0000gn/T/arduino_cache_261188/core/core_33a28a35d5be94a4487e04df0719a759.a(usb_cdcacm.c.o)
 .text.usbNoDataSetup
                0x00000000080013d0       0x50 /var/folders/28/_tsmhg4172s_wy7vswfkzq9h0000gn/T/arduino_cache_261188/core/core_33a28a35d5be94a4487e04df0719a759.a(usb_cdcacm.c.o)
 .text.usbGetInterfaceSetting
                0x0000000008001420       0x10 /var/folders/28/_tsmhg4172s_wy7vswfkzq9h0000gn/T/arduino_cache_261188/core/core_33a28a35d5be94a4487e04df0719a759.a(usb_cdcacm.c.o)
 .text.usbSetConfiguration
                0x0000000008001430       0x1c /var/folders/28/_tsmhg4172s_wy7vswfkzq9h0000gn/T/arduino_cache_261188/core/core_33a28a35d5be94a4487e04df0719a759.a(usb_cdcacm.c.o)
 .text.usbSetDeviceAddress
                0x000000000800144c       0x10 /var/folders/28/_tsmhg4172s_wy7vswfkzq9h0000gn/T/arduino_cache_261188/core/core_33a28a35d5be94a4487e04df0719a759.a(usb_cdcacm.c.o)
 .text.usbGetStringDescriptor
                0x000000000800145c       0x20 /var/folders/28/_tsmhg4172s_wy7vswfkzq9h0000gn/T/arduino_cache_261188/core/core_33a28a35d5be94a4487e04df0719a759.a(usb_cdcacm.c.o)
 .text.usbGetConfigDescriptor
                0x000000000800147c        0xc /var/folders/28/_tsmhg4172s_wy7vswfkzq9h0000gn/T/arduino_cache_261188/core/core_33a28a35d5be94a4487e04df0719a759.a(usb_cdcacm.c.o)
 .text.usbGetDeviceDescriptor
                0x0000000008001488        0xc /var/folders/28/_tsmhg4172s_wy7vswfkzq9h0000gn/T/arduino_cache_261188/core/core_33a28a35d5be94a4487e04df0719a759.a(usb_cdcacm.c.o)
 .text.usbInit  0x0000000008001494       0x44 /var/folders/28/_tsmhg4172s_wy7vswfkzq9h0000gn/T/arduino_cache_261188/core/core_33a28a35d5be94a4487e04df0719a759.a(usb_cdcacm.c.o)
 .text.vcomDataTxCb
                0x00000000080014d8       0xa0 /var/folders/28/_tsmhg4172s_wy7vswfkzq9h0000gn/T/arduino_cache_261188/core/core_33a28a35d5be94a4487e04df0719a759.a(usb_cdcacm.c.o)
 .text.usbReset
                0x0000000008001578      0x160 /var/folders/28/_tsmhg4172s_wy7vswfkzq9h0000gn/T/arduino_cache_261188/core/core_33a28a35d5be94a4487e04df0719a759.a(usb_cdcacm.c.o)
 .text.vcomDataRxCb
                0x00000000080016d8       0x7c /var/folders/28/_tsmhg4172s_wy7vswfkzq9h0000gn/T/arduino_cache_261188/core/core_33a28a35d5be94a4487e04df0719a759.a(usb_cdcacm.c.o)
 .text.usb_cdcacm_set_hooks
                0x0000000008001754       0x1c /var/folders/28/_tsmhg4172s_wy7vswfkzq9h0000gn/T/arduino_cache_261188/core/core_33a28a35d5be94a4487e04df0719a759.a(usb_cdcacm.c.o)
                0x0000000008001754                usb_cdcacm_set_hooks
 .text.usb_cdcacm_enable
                0x0000000008001770       0x38 /var/folders/28/_tsmhg4172s_wy7vswfkzq9h0000gn/T/arduino_cache_261188/core/core_33a28a35d5be94a4487e04df0719a759.a(usb_cdcacm.c.o)
                0x0000000008001770                usb_cdcacm_enable
 .text.usb_cdcacm_tx
                0x00000000080017a8       0x60 /var/folders/28/_tsmhg4172s_wy7vswfkzq9h0000gn/T/arduino_cache_261188/core/core_33a28a35d5be94a4487e04df0719a759.a(usb_cdcacm.c.o)
                0x00000000080017a8                usb_cdcacm_tx
 .text.usb_cdcacm_data_available
                0x0000000008001808       0x18 /var/folders/28/_tsmhg4172s_wy7vswfkzq9h0000gn/T/arduino_cache_261188/core/core_33a28a35d5be94a4487e04df0719a759.a(usb_cdcacm.c.o)
                0x0000000008001808                usb_cdcacm_data_available
 .text.usb_cdcacm_peek
                0x0000000008001820       0x38 /var/folders/28/_tsmhg4172s_wy7vswfkzq9h0000gn/T/arduino_cache_261188/core/core_33a28a35d5be94a4487e04df0719a759.a(usb_cdcacm.c.o)
                0x0000000008001820                usb_cdcacm_peek
 .text.usb_cdcacm_rx
                0x0000000008001858       0x34 /var/folders/28/_tsmhg4172s_wy7vswfkzq9h0000gn/T/arduino_cache_261188/core/core_33a28a35d5be94a4487e04df0719a759.a(usb_cdcacm.c.o)
                0x0000000008001858                usb_cdcacm_rx
 .text.usb_cdcacm_peek_ex
                0x000000000800188c       0x40 /var/folders/28/_tsmhg4172s_wy7vswfkzq9h0000gn/T/arduino_cache_261188/core/core_33a28a35d5be94a4487e04df0719a759.a(usb_cdcacm.c.o)
                0x000000000800188c                usb_cdcacm_peek_ex
 .text.usb_cdcacm_get_dtr
                0x00000000080018cc       0x10 /var/folders/28/_tsmhg4172s_wy7vswfkzq9h0000gn/T/arduino_cache_261188/core/core_33a28a35d5be94a4487e04df0719a759.a(usb_cdcacm.c.o)
                0x00000000080018cc                usb_cdcacm_get_dtr
 .text.usb_cdcacm_get_baud
                0x00000000080018dc        0xc /var/folders/28/_tsmhg4172s_wy7vswfkzq9h0000gn/T/arduino_cache_261188/core/core_33a28a35d5be94a4487e04df0719a759.a(usb_cdcacm.c.o)
                0x00000000080018dc                usb_cdcacm_get_baud
 .text.usb_set_ep_rx_count
                0x00000000080018e8       0x40 /var/folders/28/_tsmhg4172s_wy7vswfkzq9h0000gn/T/arduino_cache_261188/core/core_33a28a35d5be94a4487e04df0719a759.a(usb_reg_map.c.o)
                0x00000000080018e8                usb_set_ep_rx_count
 .text.Standard_GetConfiguration
                0x0000000008001928       0x24 /var/folders/28/_tsmhg4172s_wy7vswfkzq9h0000gn/T/arduino_cache_261188/core/core_33a28a35d5be94a4487e04df0719a759.a(usb_core.c.o)
                0x0000000008001928                Standard_GetConfiguration
 .text.Standard_GetInterface
                0x000000000800194c       0x24 /var/folders/28/_tsmhg4172s_wy7vswfkzq9h0000gn/T/arduino_cache_261188/core/core_33a28a35d5be94a4487e04df0719a759.a(usb_core.c.o)
                0x000000000800194c                Standard_GetInterface
 .text.Standard_GetStatus
                0x0000000008001970       0x90 /var/folders/28/_tsmhg4172s_wy7vswfkzq9h0000gn/T/arduino_cache_261188/core/core_33a28a35d5be94a4487e04df0719a759.a(usb_core.c.o)
                0x0000000008001970                Standard_GetStatus
 .text.DataStageIn
                0x0000000008001a00       0xa8 /var/folders/28/_tsmhg4172s_wy7vswfkzq9h0000gn/T/arduino_cache_261188/core/core_33a28a35d5be94a4487e04df0719a759.a(usb_core.c.o)
 .text.Standard_SetConfiguration
                0x0000000008001aa8       0x38 /var/folders/28/_tsmhg4172s_wy7vswfkzq9h0000gn/T/arduino_cache_261188/core/core_33a28a35d5be94a4487e04df0719a759.a(usb_core.c.o)
                0x0000000008001aa8                Standard_SetConfiguration
 .text.Standard_SetInterface
                0x0000000008001ae0       0x48 /var/folders/28/_tsmhg4172s_wy7vswfkzq9h0000gn/T/arduino_cache_261188/core/core_33a28a35d5be94a4487e04df0719a759.a(usb_core.c.o)
                0x0000000008001ae0                Standard_SetInterface
 .text.Standard_ClearFeature
                0x0000000008001b28       0xd0 /var/folders/28/_tsmhg4172s_wy7vswfkzq9h0000gn/T/arduino_cache_261188/core/core_33a28a35d5be94a4487e04df0719a759.a(usb_core.c.o)
                0x0000000008001b28                Standard_ClearFeature
 .text.Standard_SetEndPointFeature
                0x0000000008001bf8       0x84 /var/folders/28/_tsmhg4172s_wy7vswfkzq9h0000gn/T/arduino_cache_261188/core/core_33a28a35d5be94a4487e04df0719a759.a(usb_core.c.o)
                0x0000000008001bf8                Standard_SetEndPointFeature
 .text.Standard_SetDeviceFeature
                0x0000000008001c7c       0x24 /var/folders/28/_tsmhg4172s_wy7vswfkzq9h0000gn/T/arduino_cache_261188/core/core_33a28a35d5be94a4487e04df0719a759.a(usb_core.c.o)
                0x0000000008001c7c                Standard_SetDeviceFeature
 .text.Standard_GetDescriptorData
                0x0000000008001ca0       0x1c /var/folders/28/_tsmhg4172s_wy7vswfkzq9h0000gn/T/arduino_cache_261188/core/core_33a28a35d5be94a4487e04df0719a759.a(usb_core.c.o)
                0x0000000008001ca0                Standard_GetDescriptorData
 .text.Post0_Process
                0x0000000008001cbc       0x40 /var/folders/28/_tsmhg4172s_wy7vswfkzq9h0000gn/T/arduino_cache_261188/core/core_33a28a35d5be94a4487e04df0719a759.a(usb_core.c.o)
                0x0000000008001cbc                Post0_Process
 .text.Setup0_Process
                0x0000000008001cfc      0x2d0 /var/folders/28/_tsmhg4172s_wy7vswfkzq9h0000gn/T/arduino_cache_261188/core/core_33a28a35d5be94a4487e04df0719a759.a(usb_core.c.o)
                0x0000000008001cfc                Setup0_Process
 .text.Out0_Process
                0x0000000008001fcc       0xc8 /var/folders/28/_tsmhg4172s_wy7vswfkzq9h0000gn/T/arduino_cache_261188/core/core_33a28a35d5be94a4487e04df0719a759.a(usb_core.c.o)
                0x0000000008001fcc                Out0_Process
 .text.SetDeviceAddress
                0x0000000008002094       0x38 /var/folders/28/_tsmhg4172s_wy7vswfkzq9h0000gn/T/arduino_cache_261188/core/core_33a28a35d5be94a4487e04df0719a759.a(usb_core.c.o)
                0x0000000008002094                SetDeviceAddress
 .text.In0_Process
                0x00000000080020cc       0x5c /var/folders/28/_tsmhg4172s_wy7vswfkzq9h0000gn/T/arduino_cache_261188/core/core_33a28a35d5be94a4487e04df0719a759.a(usb_core.c.o)
                0x00000000080020cc                In0_Process
 .text.NOP_Process
                0x0000000008002128        0x2 /var/folders/28/_tsmhg4172s_wy7vswfkzq9h0000gn/T/arduino_cache_261188/core/core_33a28a35d5be94a4487e04df0719a759.a(usb_core.c.o)
                0x0000000008002128                NOP_Process
 .text.UserToPMABufferCopy
                0x000000000800212a       0x30 /var/folders/28/_tsmhg4172s_wy7vswfkzq9h0000gn/T/arduino_cache_261188/core/core_33a28a35d5be94a4487e04df0719a759.a(usb_mem.c.o)
                0x000000000800212a                UserToPMABufferCopy
 .text.PMAToUserBufferCopy
                0x000000000800215a       0x24 /var/folders/28/_tsmhg4172s_wy7vswfkzq9h0000gn/T/arduino_cache_261188/core/core_33a28a35d5be94a4487e04df0719a759.a(usb_mem.c.o)
                0x000000000800215a                PMAToUserBufferCopy
 .text.SetEPTxStatus
                0x000000000800217e       0x2a /var/folders/28/_tsmhg4172s_wy7vswfkzq9h0000gn/T/arduino_cache_261188/core/core_33a28a35d5be94a4487e04df0719a759.a(usb_regs.c.o)
                0x000000000800217e                SetEPTxStatus
 .text.ClearDTOG_RX
                0x00000000080021a8       0x20 /var/folders/28/_tsmhg4172s_wy7vswfkzq9h0000gn/T/arduino_cache_261188/core/core_33a28a35d5be94a4487e04df0719a759.a(usb_regs.c.o)
                0x00000000080021a8                ClearDTOG_RX
 .text.ClearDTOG_TX
                0x00000000080021c8       0x20 /var/folders/28/_tsmhg4172s_wy7vswfkzq9h0000gn/T/arduino_cache_261188/core/core_33a28a35d5be94a4487e04df0719a759.a(usb_regs.c.o)
                0x00000000080021c8                ClearDTOG_TX
 .text.GetEPTxAddr
                0x00000000080021e8       0x1c /var/folders/28/_tsmhg4172s_wy7vswfkzq9h0000gn/T/arduino_cache_261188/core/core_33a28a35d5be94a4487e04df0719a759.a(usb_regs.c.o)
                0x00000000080021e8                GetEPTxAddr
 .text.GetEPRxAddr
                0x0000000008002204       0x1c /var/folders/28/_tsmhg4172s_wy7vswfkzq9h0000gn/T/arduino_cache_261188/core/core_33a28a35d5be94a4487e04df0719a759.a(usb_regs.c.o)
                0x0000000008002204                GetEPRxAddr
 .text.SetEPTxCount
                0x0000000008002220       0x1c /var/folders/28/_tsmhg4172s_wy7vswfkzq9h0000gn/T/arduino_cache_261188/core/core_33a28a35d5be94a4487e04df0719a759.a(usb_regs.c.o)
                0x0000000008002220                SetEPTxCount
 .text.SetEPRxCount
                0x000000000800223c       0x40 /var/folders/28/_tsmhg4172s_wy7vswfkzq9h0000gn/T/arduino_cache_261188/core/core_33a28a35d5be94a4487e04df0719a759.a(usb_regs.c.o)
                0x000000000800223c                SetEPRxCount
 .text.usart_putc
                0x000000000800227c       0x1c /var/folders/28/_tsmhg4172s_wy7vswfkzq9h0000gn/T/arduino_cache_261188/core/core_33a28a35d5be94a4487e04df0719a759.a(util.c.o)
 .text.usart_putstr
                0x0000000008002298       0x16 /var/folders/28/_tsmhg4172s_wy7vswfkzq9h0000gn/T/arduino_cache_261188/core/core_33a28a35d5be94a4487e04df0719a759.a(util.c.o)
 *fill*         0x00000000080022ae        0x2 
 .text.throb    0x00000000080022b0       0x4c /var/folders/28/_tsmhg4172s_wy7vswfkzq9h0000gn/T/arduino_cache_261188/core/core_33a28a35d5be94a4487e04df0719a759.a(util.c.o)
                0x00000000080022b0                throb
 .text.__error  0x00000000080022fc       0x14 /var/folders/28/_tsmhg4172s_wy7vswfkzq9h0000gn/T/arduino_cache_261188/core/core_33a28a35d5be94a4487e04df0719a759.a(util.c.o)
                0x00000000080022fc                __error
 .text._fail    0x0000000008002310       0x64 /var/folders/28/_tsmhg4172s_wy7vswfkzq9h0000gn/T/arduino_cache_261188/core/core_33a28a35d5be94a4487e04df0719a759.a(util.c.o)
                0x0000000008002310                _fail
 .text._ZN14HardwareSerial4readEv
                0x0000000008002374       0x4e /var/folders/28/_tsmhg4172s_wy7vswfkzq9h0000gn/T/arduino_cache_261188/core/core_33a28a35d5be94a4487e04df0719a759.a(HardwareSerial.cpp.o)
                0x0000000008002374                HardwareSerial::read()
 .text._ZN14HardwareSerial4peekEv
                0x00000000080023c2       0x22 /var/folders/28/_tsmhg4172s_wy7vswfkzq9h0000gn/T/arduino_cache_261188/core/core_33a28a35d5be94a4487e04df0719a759.a(HardwareSerial.cpp.o)
                0x00000000080023c2                HardwareSerial::peek()
 .text._ZN14HardwareSerial5flushEv
                0x00000000080023e4       0x1a /var/folders/28/_tsmhg4172s_wy7vswfkzq9h0000gn/T/arduino_cache_261188/core/core_33a28a35d5be94a4487e04df0719a759.a(HardwareSerial.cpp.o)
                0x00000000080023e4                HardwareSerial::flush()
 .text._ZN14HardwareSerial5writeEh
                0x00000000080023fe       0x1e /var/folders/28/_tsmhg4172s_wy7vswfkzq9h0000gn/T/arduino_cache_261188/core/core_33a28a35d5be94a4487e04df0719a759.a(HardwareSerial.cpp.o)
                0x00000000080023fe                HardwareSerial::write(unsigned char)
 .text._ZN14HardwareSerial9availableEv
                0x000000000800241c       0x26 /var/folders/28/_tsmhg4172s_wy7vswfkzq9h0000gn/T/arduino_cache_261188/core/core_33a28a35d5be94a4487e04df0719a759.a(HardwareSerial.cpp.o)
                0x000000000800241c                HardwareSerial::available()
 *fill*         0x0000000008002442        0x2 
 .text._ZN14HardwareSerialC2EP9usart_devhh
                0x0000000008002444       0x1c /var/folders/28/_tsmhg4172s_wy7vswfkzq9h0000gn/T/arduino_cache_261188/core/core_33a28a35d5be94a4487e04df0719a759.a(HardwareSerial.cpp.o)
                0x0000000008002444                HardwareSerial::HardwareSerial(usart_dev*, unsigned char, unsigned char)
                0x0000000008002444                HardwareSerial::HardwareSerial(usart_dev*, unsigned char, unsigned char)
 .text._ZN5Print5writeEPKvm
                0x0000000008002460       0x20 /var/folders/28/_tsmhg4172s_wy7vswfkzq9h0000gn/T/arduino_cache_261188/core/core_33a28a35d5be94a4487e04df0719a759.a(Print.cpp.o)
                0x0000000008002460                Print::write(void const*, unsigned long)
 .text._ZN5Print5writeEPKc
                0x0000000008002480       0x1e /var/folders/28/_tsmhg4172s_wy7vswfkzq9h0000gn/T/arduino_cache_261188/core/core_33a28a35d5be94a4487e04df0719a759.a(Print.cpp.o)
                0x0000000008002480                Print::write(char const*)
 .text.startup._Z7premainv
                0x000000000800249e        0x4 /var/folders/28/_tsmhg4172s_wy7vswfkzq9h0000gn/T/arduino_cache_261188/core/core_33a28a35d5be94a4487e04df0719a759.a(main.cpp.o)
                0x000000000800249e                premain()
 .text.startup.main
                0x00000000080024a2        0xc /var/folders/28/_tsmhg4172s_wy7vswfkzq9h0000gn/T/arduino_cache_261188/core/core_33a28a35d5be94a4487e04df0719a759.a(main.cpp.o)
                0x00000000080024a2                main
 *fill*         0x00000000080024ae        0x2 
 .text._Z7pinModeh13WiringPinMode
                0x00000000080024b0       0x9c /var/folders/28/_tsmhg4172s_wy7vswfkzq9h0000gn/T/arduino_cache_261188/core/core_33a28a35d5be94a4487e04df0719a759.a(wirish_digital_f1.cpp.o)
                0x00000000080024b0                pinMode(unsigned char, WiringPinMode)
 .text._ZN9USBSerial9availableEv
                0x000000000800254c        0x4 /var/folders/28/_tsmhg4172s_wy7vswfkzq9h0000gn/T/arduino_cache_261188/core/core_33a28a35d5be94a4487e04df0719a759.a(usb_serial.cpp.o)
                0x000000000800254c                USBSerial::available()
 .text._ZN9USBSerial4peekEv
                0x0000000008002550       0x1e /var/folders/28/_tsmhg4172s_wy7vswfkzq9h0000gn/T/arduino_cache_261188/core/core_33a28a35d5be94a4487e04df0719a759.a(usb_serial.cpp.o)
                0x0000000008002550                USBSerial::peek()
 .text._ZN9USBSerial4readEv
                0x000000000800256e       0x1e /var/folders/28/_tsmhg4172s_wy7vswfkzq9h0000gn/T/arduino_cache_261188/core/core_33a28a35d5be94a4487e04df0719a759.a(usb_serial.cpp.o)
                0x000000000800256e                USBSerial::read()
 .text._ZL14ifaceSetupHookjPv
                0x000000000800258c       0x50 /var/folders/28/_tsmhg4172s_wy7vswfkzq9h0000gn/T/arduino_cache_261188/core/core_33a28a35d5be94a4487e04df0719a759.a(usb_serial.cpp.o)
 .text._ZL6rxHookjPv
                0x00000000080025dc       0xb0 /var/folders/28/_tsmhg4172s_wy7vswfkzq9h0000gn/T/arduino_cache_261188/core/core_33a28a35d5be94a4487e04df0719a759.a(usb_serial.cpp.o)
 .text._ZL10wait_resetv
                0x000000000800268c       0x10 /var/folders/28/_tsmhg4172s_wy7vswfkzq9h0000gn/T/arduino_cache_261188/core/core_33a28a35d5be94a4487e04df0719a759.a(usb_serial.cpp.o)
 .text._ZN9USBSerialC2Ev
                0x000000000800269c       0x14 /var/folders/28/_tsmhg4172s_wy7vswfkzq9h0000gn/T/arduino_cache_261188/core/core_33a28a35d5be94a4487e04df0719a759.a(usb_serial.cpp.o)
                0x000000000800269c                USBSerial::USBSerial()
                0x000000000800269c                USBSerial::USBSerial()
 .text._ZN9USBSerial5beginEv
                0x00000000080026b0       0x34 /var/folders/28/_tsmhg4172s_wy7vswfkzq9h0000gn/T/arduino_cache_261188/core/core_33a28a35d5be94a4487e04df0719a759.a(usb_serial.cpp.o)
                0x00000000080026b0                USBSerial::begin()
 .text._ZN9USBSerial4readEPhm
                0x00000000080026e4       0x1c /var/folders/28/_tsmhg4172s_wy7vswfkzq9h0000gn/T/arduino_cache_261188/core/core_33a28a35d5be94a4487e04df0719a759.a(usb_serial.cpp.o)
                0x00000000080026e4                USBSerial::read(unsigned char*, unsigned long)
 .text._ZN9USBSerial5flushEv
                0x0000000008002700       0x1c /var/folders/28/_tsmhg4172s_wy7vswfkzq9h0000gn/T/arduino_cache_261188/core/core_33a28a35d5be94a4487e04df0719a759.a(usb_serial.cpp.o)
                0x0000000008002700                USBSerial::flush()
 .text._ZN9USBSerialcvbEv
                0x000000000800271c       0x20 /var/folders/28/_tsmhg4172s_wy7vswfkzq9h0000gn/T/arduino_cache_261188/core/core_33a28a35d5be94a4487e04df0719a759.a(usb_serial.cpp.o)
                0x000000000800271c                USBSerial::operator bool()
 .text._ZN9USBSerial5writeEPKhm
                0x000000000800273c       0x24 /var/folders/28/_tsmhg4172s_wy7vswfkzq9h0000gn/T/arduino_cache_261188/core/core_33a28a35d5be94a4487e04df0719a759.a(usb_serial.cpp.o)
                0x000000000800273c                USBSerial::write(unsigned char const*, unsigned long)
 .text._ZN9USBSerial5writeEh
                0x0000000008002760       0x18 /var/folders/28/_tsmhg4172s_wy7vswfkzq9h0000gn/T/arduino_cache_261188/core/core_33a28a35d5be94a4487e04df0719a759.a(usb_serial.cpp.o)
                0x0000000008002760                USBSerial::write(unsigned char)
 .text._ZN9USBSerial5writeEPKc
                0x0000000008002778       0x1a /var/folders/28/_tsmhg4172s_wy7vswfkzq9h0000gn/T/arduino_cache_261188/core/core_33a28a35d5be94a4487e04df0719a759.a(usb_serial.cpp.o)
                0x0000000008002778                USBSerial::write(char const*)
 *fill*         0x0000000008002792        0x2 
 .text.startup._GLOBAL__sub_I__ZN9USBSerial9_hasBegunE
                0x0000000008002794        0xc /var/folders/28/_tsmhg4172s_wy7vswfkzq9h0000gn/T/arduino_cache_261188/core/core_33a28a35d5be94a4487e04df0719a759.a(usb_serial.cpp.o)
 .text._Z12digitalWritehh
                0x00000000080027a0       0x2c /var/folders/28/_tsmhg4172s_wy7vswfkzq9h0000gn/T/arduino_cache_261188/core/core_33a28a35d5be94a4487e04df0719a759.a(wirish_digital.cpp.o)
                0x00000000080027a0                digitalWrite(unsigned char, unsigned char)
 .text._Z5delaym
                0x00000000080027cc       0x1c /var/folders/28/_tsmhg4172s_wy7vswfkzq9h0000gn/T/arduino_cache_261188/core/core_33a28a35d5be94a4487e04df0719a759.a(wirish_time.cpp.o)
                0x00000000080027cc                delay(unsigned long)
 .text.__empty  0x00000000080027e8        0x2 /var/folders/28/_tsmhg4172s_wy7vswfkzq9h0000gn/T/arduino_cache_261188/core/core_33a28a35d5be94a4487e04df0719a759.a(hooks.c.o)
                0x00000000080027e8                yield
 .text.bkp_init
                0x00000000080027ea       0x18 /var/folders/28/_tsmhg4172s_wy7vswfkzq9h0000gn/T/arduino_cache_261188/core/core_33a28a35d5be94a4487e04df0719a759.a(bkp_f1.c.o)
                0x00000000080027ea                bkp_init
 *fill*         0x0000000008002802        0x2 
 .text.bkp_enable_writes
                0x0000000008002804        0xc /var/folders/28/_tsmhg4172s_wy7vswfkzq9h0000gn/T/arduino_cache_261188/core/core_33a28a35d5be94a4487e04df0719a759.a(bkp_f1.c.o)
                0x0000000008002804                bkp_enable_writes
 .text.bkp_disable_writes
                0x0000000008002810        0xc /var/folders/28/_tsmhg4172s_wy7vswfkzq9h0000gn/T/arduino_cache_261188/core/core_33a28a35d5be94a4487e04df0719a759.a(bkp_f1.c.o)
                0x0000000008002810                bkp_disable_writes
 .text.bkp_write
                0x000000000800281c       0x28 /var/folders/28/_tsmhg4172s_wy7vswfkzq9h0000gn/T/arduino_cache_261188/core/core_33a28a35d5be94a4487e04df0719a759.a(bkp_f1.c.o)
                0x000000000800281c                bkp_write
 .text.gpio_init
                0x0000000008002844       0x14 /var/folders/28/_tsmhg4172s_wy7vswfkzq9h0000gn/T/arduino_cache_261188/core/core_33a28a35d5be94a4487e04df0719a759.a(gpio.c.o)
                0x0000000008002844                gpio_init
 .text.i2c_start_condition
                0x0000000008002858       0x14 /var/folders/28/_tsmhg4172s_wy7vswfkzq9h0000gn/T/arduino_cache_261188/core/core_33a28a35d5be94a4487e04df0719a759.a(i2c.c.o)
 .text.i2c_stop_condition
                0x000000000800286c       0x1c /var/folders/28/_tsmhg4172s_wy7vswfkzq9h0000gn/T/arduino_cache_261188/core/core_33a28a35d5be94a4487e04df0719a759.a(i2c.c.o)
 .text._i2c_irq_handler
                0x0000000008002888      0x188 /var/folders/28/_tsmhg4172s_wy7vswfkzq9h0000gn/T/arduino_cache_261188/core/core_33a28a35d5be94a4487e04df0719a759.a(i2c.c.o)
                0x0000000008002888                _i2c_irq_handler
 .text._i2c_irq_error_handler
                0x0000000008002a10       0x2a /var/folders/28/_tsmhg4172s_wy7vswfkzq9h0000gn/T/arduino_cache_261188/core/core_33a28a35d5be94a4487e04df0719a759.a(i2c.c.o)
                0x0000000008002a10                _i2c_irq_error_handler
 *fill*         0x0000000008002a3a        0x2 
 .text.iwdg_init
                0x0000000008002a3c       0x20 /var/folders/28/_tsmhg4172s_wy7vswfkzq9h0000gn/T/arduino_cache_261188/core/core_33a28a35d5be94a4487e04df0719a759.a(iwdg.c.o)
                0x0000000008002a3c                iwdg_init
 .text.usart_tx
                0x0000000008002a5c       0x9c /var/folders/28/_tsmhg4172s_wy7vswfkzq9h0000gn/T/arduino_cache_261188/core/core_33a28a35d5be94a4487e04df0719a759.a(usart.c.o)
                0x0000000008002a5c                usart_tx
 .text.usart_putudec
                0x0000000008002af8       0x44 /var/folders/28/_tsmhg4172s_wy7vswfkzq9h0000gn/T/arduino_cache_261188/core/core_33a28a35d5be94a4487e04df0719a759.a(usart.c.o)
                0x0000000008002af8                usart_putudec
 .text.exit     0x0000000008002b3c       0x20 /Users/paulgallagher/Library/Arduino15/packages/arduino/tools/arm-none-eabi-gcc/4.8.3-2014q1/bin/../lib/gcc/arm-none-eabi/4.8.3/../../../../arm-none-eabi/lib/armv7-m/libc.a(lib_a-exit.o)
                0x0000000008002b3c                exit
 .text.__libc_init_array
                0x0000000008002b5c       0x50 /Users/paulgallagher/Library/Arduino15/packages/arduino/tools/arm-none-eabi-gcc/4.8.3-2014q1/bin/../lib/gcc/arm-none-eabi/4.8.3/../../../../arm-none-eabi/lib/armv7-m/libc.a(lib_a-init.o)
                0x0000000008002b5c                __libc_init_array
 .text.strlen   0x0000000008002bac       0x60 /Users/paulgallagher/Library/Arduino15/packages/arduino/tools/arm-none-eabi-gcc/4.8.3-2014q1/bin/../lib/gcc/arm-none-eabi/4.8.3/../../../../arm-none-eabi/lib/armv7-m/libc.a(lib_a-strlen.o)
                0x0000000008002bac                strlen
 .text.startup.register_fini
                0x0000000008002c0c       0x14 /Users/paulgallagher/Library/Arduino15/packages/arduino/tools/arm-none-eabi-gcc/4.8.3-2014q1/bin/../lib/gcc/arm-none-eabi/4.8.3/../../../../arm-none-eabi/lib/armv7-m/libc.a(lib_a-__call_atexit.o)
 .text.__call_exitprocs
                0x0000000008002c20       0xf0 /Users/paulgallagher/Library/Arduino15/packages/arduino/tools/arm-none-eabi-gcc/4.8.3-2014q1/bin/../lib/gcc/arm-none-eabi/4.8.3/../../../../arm-none-eabi/lib/armv7-m/libc.a(lib_a-__call_atexit.o)
                0x0000000008002c20                __call_exitprocs
 .text.atexit   0x0000000008002d10        0xc /Users/paulgallagher/Library/Arduino15/packages/arduino/tools/arm-none-eabi-gcc/4.8.3-2014q1/bin/../lib/gcc/arm-none-eabi/4.8.3/../../../../arm-none-eabi/lib/armv7-m/libc.a(lib_a-atexit.o)
                0x0000000008002d10                atexit
 .text.__libc_fini_array
                0x0000000008002d1c       0x30 /Users/paulgallagher/Library/Arduino15/packages/arduino/tools/arm-none-eabi-gcc/4.8.3-2014q1/bin/../lib/gcc/arm-none-eabi/4.8.3/../../../../arm-none-eabi/lib/armv7-m/libc.a(lib_a-fini.o)
                0x0000000008002d1c                __libc_fini_array
 .text.__register_exitproc
                0x0000000008002d4c       0xa8 /Users/paulgallagher/Library/Arduino15/packages/arduino/tools/arm-none-eabi-gcc/4.8.3-2014q1/bin/../lib/gcc/arm-none-eabi/4.8.3/../../../../arm-none-eabi/lib/armv7-m/libc.a(lib_a-__atexit.o)
                0x0000000008002d4c                __register_exitproc
 *(.plt)
 *(.gnu.warning)
 *(.glue_7t)
 .glue_7t       0x0000000000000000        0x0 linker stubs
 *(.glue_7)
 .glue_7        0x0000000000000000        0x0 linker stubs
 *(.vfp11_veneer)
 .vfp11_veneer  0x0000000000000000        0x0 linker stubs
 *(.ARM.extab* .gnu.linkonce.armextab.*)
 *(.gcc_except_table)
 *(.eh_frame_hdr)
 *(.eh_frame)
 .eh_frame      0x0000000008002df4        0x0 /Users/paulgallagher/Library/Arduino15/packages/arduino/tools/arm-none-eabi-gcc/4.8.3-2014q1/bin/../lib/gcc/arm-none-eabi/4.8.3/armv7-m/crtbegin.o
                0x0000000008002df4                . = ALIGN (0x4)
 *(.init)
 .init          0x0000000008002df4        0x4 /Users/paulgallagher/Library/Arduino15/packages/arduino/tools/arm-none-eabi-gcc/4.8.3-2014q1/bin/../lib/gcc/arm-none-eabi/4.8.3/armv7-m/crti.o
                0x0000000008002df4                _init
 .init          0x0000000008002df8        0x8 /Users/paulgallagher/Library/Arduino15/packages/arduino/tools/arm-none-eabi-gcc/4.8.3-2014q1/bin/../lib/gcc/arm-none-eabi/4.8.3/armv7-m/crtn.o
                0x0000000008002e00                . = ALIGN (0x4)
                0x0000000008002e00                __preinit_array_start = .
 *(.preinit_array)
                0x0000000008002e00                __preinit_array_end = .
                0x0000000008002e00                . = ALIGN (0x4)
                0x0000000008002e00                __init_array_start = .
 *(SORT(.init_array.*))
 .init_array.00000
                0x0000000008002e00        0x4 /Users/paulgallagher/Library/Arduino15/packages/arduino/tools/arm-none-eabi-gcc/4.8.3-2014q1/bin/../lib/gcc/arm-none-eabi/4.8.3/../../../../arm-none-eabi/lib/armv7-m/libc.a(lib_a-__call_atexit.o)
 .init_array.00101
                0x0000000008002e04        0x4 /var/folders/28/_tsmhg4172s_wy7vswfkzq9h0000gn/T/arduino_cache_261188/core/core_33a28a35d5be94a4487e04df0719a759.a(main.cpp.o)
 *(.init_array)
 .init_array    0x0000000008002e08        0x4 /Users/paulgallagher/Library/Arduino15/packages/arduino/tools/arm-none-eabi-gcc/4.8.3-2014q1/bin/../lib/gcc/arm-none-eabi/4.8.3/armv7-m/crtbegin.o
 .init_array    0x0000000008002e0c        0x4 /var/folders/28/_tsmhg4172s_wy7vswfkzq9h0000gn/T/arduino_build_279421/core/board.cpp.o
 .init_array    0x0000000008002e10        0x4 /var/folders/28/_tsmhg4172s_wy7vswfkzq9h0000gn/T/arduino_cache_261188/core/core_33a28a35d5be94a4487e04df0719a759.a(usb_serial.cpp.o)
                0x0000000008002e14                __init_array_end = .
                0x0000000008002e14                . = ALIGN (0x4)
 *crtbegin.o(.ctors)
 *(EXCLUDE_FILE(*crtend.o) .ctors)
 *(SORT(.ctors.*))
 *crtend.o(.ctors)
                0x0000000008002e14                . = ALIGN (0x4)
 *(.fini)
 .fini          0x0000000008002e14        0x4 /Users/paulgallagher/Library/Arduino15/packages/arduino/tools/arm-none-eabi-gcc/4.8.3-2014q1/bin/../lib/gcc/arm-none-eabi/4.8.3/armv7-m/crti.o
                0x0000000008002e14                _fini
 .fini          0x0000000008002e18        0x8 /Users/paulgallagher/Library/Arduino15/packages/arduino/tools/arm-none-eabi-gcc/4.8.3-2014q1/bin/../lib/gcc/arm-none-eabi/4.8.3/armv7-m/crtn.o
                0x0000000008002e20                . = ALIGN (0x4)
                0x0000000008002e20                __fini_array_start = .
 *(.fini_array)
 .fini_array    0x0000000008002e20        0x4 /Users/paulgallagher/Library/Arduino15/packages/arduino/tools/arm-none-eabi-gcc/4.8.3-2014q1/bin/../lib/gcc/arm-none-eabi/4.8.3/armv7-m/crtbegin.o
 *(SORT(.fini_array.*))
                0x0000000008002e24                __fini_array_end = .
 *crtbegin.o(.dtors)
 *(EXCLUDE_FILE(*crtend.o) .dtors)
 *(SORT(.dtors.*))
 *crtend.o(.dtors)

.v4_bx          0x0000000008002e24        0x0
 .v4_bx         0x0000000000000000        0x0 linker stubs

.iplt           0x0000000008002e24        0x0
 .iplt          0x0000000000000000        0x0 /Users/paulgallagher/Library/Arduino15/packages/arduino/tools/arm-none-eabi-gcc/4.8.3-2014q1/bin/../lib/gcc/arm-none-eabi/4.8.3/armv7-m/crtbegin.o

.text.align     0x0000000008002e24        0x4
                0x0000000008002e28                . = ALIGN (0x8)
 *fill*         0x0000000008002e24        0x4 
                0x0000000008002e28                __text_end__ = .
                0x0000000008002e28                __exidx_start = .

.ARM.exidx      0x0000000008002e28        0x8
 *(.ARM.exidx* .gnu.linkonce.armexidx.*)
 .ARM.exidx     0x0000000008002e28        0x8 /var/folders/28/_tsmhg4172s_wy7vswfkzq9h0000gn/T/arduino_build_279421/core/wirish/start.S.o
                0x0000000008002e30                __exidx_end = .

.data           0x0000000020000000      0x868 load address 0x0000000008002e30
                0x0000000020000000                __data_start__ = .
                0x0000000020000000        0x4 LONG 0x0
                0x0000000020000008                . = ALIGN (0x8)
 *fill*         0x0000000020000004        0x4 
 *(.got.plt)
 *(.got)
 *(.data .data.* .gnu.linkonce.d.*)
 .data.global_counter
                0x0000000020000008        0x4 /var/folders/28/_tsmhg4172s_wy7vswfkzq9h0000gn/T/arduino_build_279421/sketch/DebugWithStlink.ino.cpp.o
                0x0000000020000008                global_counter
 .data._ZN6wirish4privL8pll_dataE
                0x000000002000000c        0x4 /var/folders/28/_tsmhg4172s_wy7vswfkzq9h0000gn/T/arduino_build_279421/core/wirish/boards_setup.cpp.o
 .data._ZN6wirish4priv9w_adc_smpE
                0x0000000020000010        0x1 /var/folders/28/_tsmhg4172s_wy7vswfkzq9h0000gn/T/arduino_build_279421/core/wirish/boards_setup.cpp.o
                0x0000000020000010                wirish::priv::w_adc_smp
 *fill*         0x0000000020000011        0x1 
 .data._ZN6wirish4priv9w_adc_preE
                0x0000000020000012        0x2 /var/folders/28/_tsmhg4172s_wy7vswfkzq9h0000gn/T/arduino_build_279421/core/wirish/boards_setup.cpp.o
                0x0000000020000012                wirish::priv::w_adc_pre
 .data._ZN6wirish4priv15w_board_pll_cfgE
                0x0000000020000014        0x8 /var/folders/28/_tsmhg4172s_wy7vswfkzq9h0000gn/T/arduino_build_279421/core/wirish/boards_setup.cpp.o
                0x0000000020000014                wirish::priv::w_board_pll_cfg
 .data.adc2     0x000000002000001c        0x8 /var/folders/28/_tsmhg4172s_wy7vswfkzq9h0000gn/T/arduino_cache_261188/core/core_33a28a35d5be94a4487e04df0719a759.a(adc_f1.c.o)
                0x000000002000001c                adc2
 .data.adc1     0x0000000020000024       0x18 /var/folders/28/_tsmhg4172s_wy7vswfkzq9h0000gn/T/arduino_cache_261188/core/core_33a28a35d5be94a4487e04df0719a759.a(adc_f1.c.o)
                0x0000000020000024                adc1
 .data.ADC2     0x000000002000003c        0x4 /var/folders/28/_tsmhg4172s_wy7vswfkzq9h0000gn/T/arduino_cache_261188/core/core_33a28a35d5be94a4487e04df0719a759.a(adc_f1.c.o)
                0x000000002000003c                ADC2
 .data.ADC1     0x0000000020000040        0x4 /var/folders/28/_tsmhg4172s_wy7vswfkzq9h0000gn/T/arduino_cache_261188/core/core_33a28a35d5be94a4487e04df0719a759.a(adc_f1.c.o)
                0x0000000020000040                ADC1
 .data.dma1     0x0000000020000044       0x40 /var/folders/28/_tsmhg4172s_wy7vswfkzq9h0000gn/T/arduino_cache_261188/core/core_33a28a35d5be94a4487e04df0719a759.a(dma_f1.c.o)
 .data.DMA1     0x0000000020000084        0x4 /var/folders/28/_tsmhg4172s_wy7vswfkzq9h0000gn/T/arduino_cache_261188/core/core_33a28a35d5be94a4487e04df0719a759.a(dma_f1.c.o)
                0x0000000020000084                DMA1
 .data.gpioa    0x0000000020000088        0x8 /var/folders/28/_tsmhg4172s_wy7vswfkzq9h0000gn/T/arduino_cache_261188/core/core_33a28a35d5be94a4487e04df0719a759.a(gpio_f1.c.o)
                0x0000000020000088                gpioa
 .data.gpiob    0x0000000020000090        0x8 /var/folders/28/_tsmhg4172s_wy7vswfkzq9h0000gn/T/arduino_cache_261188/core/core_33a28a35d5be94a4487e04df0719a759.a(gpio_f1.c.o)
                0x0000000020000090                gpiob
 .data.gpioc    0x0000000020000098        0x8 /var/folders/28/_tsmhg4172s_wy7vswfkzq9h0000gn/T/arduino_cache_261188/core/core_33a28a35d5be94a4487e04df0719a759.a(gpio_f1.c.o)
                0x0000000020000098                gpioc
 .data.gpiod    0x00000000200000a0        0x8 /var/folders/28/_tsmhg4172s_wy7vswfkzq9h0000gn/T/arduino_cache_261188/core/core_33a28a35d5be94a4487e04df0719a759.a(gpio_f1.c.o)
                0x00000000200000a0                gpiod
 .data.i2c1     0x00000000200000a8       0x24 /var/folders/28/_tsmhg4172s_wy7vswfkzq9h0000gn/T/arduino_cache_261188/core/core_33a28a35d5be94a4487e04df0719a759.a(i2c_f1.c.o)
 .data.i2c2     0x00000000200000cc       0x24 /var/folders/28/_tsmhg4172s_wy7vswfkzq9h0000gn/T/arduino_cache_261188/core/core_33a28a35d5be94a4487e04df0719a759.a(i2c_f1.c.o)
 .data.enable_regs.4411
                0x00000000200000f0        0xc /var/folders/28/_tsmhg4172s_wy7vswfkzq9h0000gn/T/arduino_cache_261188/core/core_33a28a35d5be94a4487e04df0719a759.a(rcc_f1.c.o)
 .data.reset_regs.4415
                0x00000000200000fc        0x8 /var/folders/28/_tsmhg4172s_wy7vswfkzq9h0000gn/T/arduino_cache_261188/core/core_33a28a35d5be94a4487e04df0719a759.a(rcc_f1.c.o)
 .data.enable_regs.4424
                0x0000000020000104        0xc /var/folders/28/_tsmhg4172s_wy7vswfkzq9h0000gn/T/arduino_cache_261188/core/core_33a28a35d5be94a4487e04df0719a759.a(rcc_f1.c.o)
 .data.timer3   0x0000000020000110       0x24 /var/folders/28/_tsmhg4172s_wy7vswfkzq9h0000gn/T/arduino_cache_261188/core/core_33a28a35d5be94a4487e04df0719a759.a(timer.c.o)
                0x0000000020000110                timer3
 .data.timer4   0x0000000020000134       0x24 /var/folders/28/_tsmhg4172s_wy7vswfkzq9h0000gn/T/arduino_cache_261188/core/core_33a28a35d5be94a4487e04df0719a759.a(timer.c.o)
                0x0000000020000134                timer4
 .data.timer1   0x0000000020000158       0x28 /var/folders/28/_tsmhg4172s_wy7vswfkzq9h0000gn/T/arduino_cache_261188/core/core_33a28a35d5be94a4487e04df0719a759.a(timer.c.o)
                0x0000000020000158                timer1
 .data.timer2   0x0000000020000180       0x24 /var/folders/28/_tsmhg4172s_wy7vswfkzq9h0000gn/T/arduino_cache_261188/core/core_33a28a35d5be94a4487e04df0719a759.a(timer.c.o)
                0x0000000020000180                timer2
 .data.USART1   0x00000000200001a4        0x4 /var/folders/28/_tsmhg4172s_wy7vswfkzq9h0000gn/T/arduino_cache_261188/core/core_33a28a35d5be94a4487e04df0719a759.a(usart_f1.c.o)
                0x00000000200001a4                USART1
 .data.USART2   0x00000000200001a8        0x4 /var/folders/28/_tsmhg4172s_wy7vswfkzq9h0000gn/T/arduino_cache_261188/core/core_33a28a35d5be94a4487e04df0719a759.a(usart_f1.c.o)
                0x00000000200001a8                USART2
 .data.USART3   0x00000000200001ac        0x4 /var/folders/28/_tsmhg4172s_wy7vswfkzq9h0000gn/T/arduino_cache_261188/core/core_33a28a35d5be94a4487e04df0719a759.a(usart_f1.c.o)
                0x00000000200001ac                USART3
 .data.usart1   0x00000000200001b0       0x94 /var/folders/28/_tsmhg4172s_wy7vswfkzq9h0000gn/T/arduino_cache_261188/core/core_33a28a35d5be94a4487e04df0719a759.a(usart_f1.c.o)
 .data.usart2   0x0000000020000244       0x94 /var/folders/28/_tsmhg4172s_wy7vswfkzq9h0000gn/T/arduino_cache_261188/core/core_33a28a35d5be94a4487e04df0719a759.a(usart_f1.c.o)
 .data.usart3   0x00000000200002d8       0x94 /var/folders/28/_tsmhg4172s_wy7vswfkzq9h0000gn/T/arduino_cache_261188/core/core_33a28a35d5be94a4487e04df0719a759.a(usart_f1.c.o)
 .data.USBLIB   0x000000002000036c        0x4 /var/folders/28/_tsmhg4172s_wy7vswfkzq9h0000gn/T/arduino_cache_261188/core/core_33a28a35d5be94a4487e04df0719a759.a(usb.c.o)
                0x000000002000036c                USBLIB
 .data.usblib   0x0000000020000370       0x10 /var/folders/28/_tsmhg4172s_wy7vswfkzq9h0000gn/T/arduino_cache_261188/core/core_33a28a35d5be94a4487e04df0719a759.a(usb.c.o)
 .data.Config_Descriptor
                0x0000000020000380        0x8 /var/folders/28/_tsmhg4172s_wy7vswfkzq9h0000gn/T/arduino_cache_261188/core/core_33a28a35d5be94a4487e04df0719a759.a(usb_cdcacm.c.o)
 .data.Device_Property
                0x0000000020000388       0x30 /var/folders/28/_tsmhg4172s_wy7vswfkzq9h0000gn/T/arduino_cache_261188/core/core_33a28a35d5be94a4487e04df0719a759.a(usb_cdcacm.c.o)
                0x0000000020000388                Device_Property
 .data.ep_int_in
                0x00000000200003b8       0x1c /var/folders/28/_tsmhg4172s_wy7vswfkzq9h0000gn/T/arduino_cache_261188/core/core_33a28a35d5be94a4487e04df0719a759.a(usb_cdcacm.c.o)
 .data.String_Descriptor
                0x00000000200003d4       0x18 /var/folders/28/_tsmhg4172s_wy7vswfkzq9h0000gn/T/arduino_cache_261188/core/core_33a28a35d5be94a4487e04df0719a759.a(usb_cdcacm.c.o)
 .data.ep_int_out
                0x00000000200003ec       0x1c /var/folders/28/_tsmhg4172s_wy7vswfkzq9h0000gn/T/arduino_cache_261188/core/core_33a28a35d5be94a4487e04df0719a759.a(usb_cdcacm.c.o)
 .data.line_coding
                0x0000000020000408        0x7 /var/folders/28/_tsmhg4172s_wy7vswfkzq9h0000gn/T/arduino_cache_261188/core/core_33a28a35d5be94a4487e04df0719a759.a(usb_cdcacm.c.o)
 *fill*         0x000000002000040f        0x1 
 .data.User_Standard_Requests
                0x0000000020000410       0x24 /var/folders/28/_tsmhg4172s_wy7vswfkzq9h0000gn/T/arduino_cache_261188/core/core_33a28a35d5be94a4487e04df0719a759.a(usb_cdcacm.c.o)
                0x0000000020000410                User_Standard_Requests
 .data.Device_Descriptor
                0x0000000020000434        0x8 /var/folders/28/_tsmhg4172s_wy7vswfkzq9h0000gn/T/arduino_cache_261188/core/core_33a28a35d5be94a4487e04df0719a759.a(usb_cdcacm.c.o)
 .data.Device_Table
                0x000000002000043c        0x2 /var/folders/28/_tsmhg4172s_wy7vswfkzq9h0000gn/T/arduino_cache_261188/core/core_33a28a35d5be94a4487e04df0719a759.a(usb_cdcacm.c.o)
                0x000000002000043c                Device_Table
 *fill*         0x000000002000043e        0x2 
 .data.impure_data
                0x0000000020000440      0x428 /Users/paulgallagher/Library/Arduino15/packages/arduino/tools/arm-none-eabi-gcc/4.8.3-2014q1/bin/../lib/gcc/arm-none-eabi/4.8.3/../../../../arm-none-eabi/lib/armv7-m/libc.a(lib_a-impure.o)
                0x0000000020000868                . = ALIGN (0x8)
                0x0000000020000868                __data_end__ = .

.jcr            0x0000000020000868        0x0 load address 0x0000000008003698
 .jcr           0x0000000020000868        0x0 /Users/paulgallagher/Library/Arduino15/packages/arduino/tools/arm-none-eabi-gcc/4.8.3-2014q1/bin/../lib/gcc/arm-none-eabi/4.8.3/armv7-m/crtbegin.o

.igot.plt       0x0000000020000868        0x0 load address 0x0000000008003698
 .igot.plt      0x0000000000000000        0x0 /Users/paulgallagher/Library/Arduino15/packages/arduino/tools/arm-none-eabi-gcc/4.8.3-2014q1/bin/../lib/gcc/arm-none-eabi/4.8.3/armv7-m/crtbegin.o

.rodata         0x0000000008003698      0x800
 *(.rodata .rodata.* .gnu.linkonce.r.*)
 .rodata.PIN_MAP
                0x0000000008003698      0x230 /var/folders/28/_tsmhg4172s_wy7vswfkzq9h0000gn/T/arduino_build_279421/core/board.cpp.o
                0x0000000008003698                PIN_MAP
 .rodata.GPIOC  0x00000000080038c8        0x4 /var/folders/28/_tsmhg4172s_wy7vswfkzq9h0000gn/T/arduino_cache_261188/core/core_33a28a35d5be94a4487e04df0719a759.a(gpio_f1.c.o)
                0x00000000080038c8                GPIOC
 .rodata.str1.1
                0x00000000080038cc       0xca /var/folders/28/_tsmhg4172s_wy7vswfkzq9h0000gn/T/arduino_cache_261188/core/core_33a28a35d5be94a4487e04df0719a759.a(rcc_f1.c.o)
 .rodata.rcc_dev_table
                0x0000000008003996       0x5c /var/folders/28/_tsmhg4172s_wy7vswfkzq9h0000gn/T/arduino_cache_261188/core/core_33a28a35d5be94a4487e04df0719a759.a(rcc_f1.c.o)
                0x0000000008003996                rcc_dev_table
 *fill*         0x00000000080039f2        0x2 
 .rodata.masks.4420
                0x00000000080039f4       0x14 /var/folders/28/_tsmhg4172s_wy7vswfkzq9h0000gn/T/arduino_cache_261188/core/core_33a28a35d5be94a4487e04df0719a759.a(rcc_f1.c.o)
 .rodata.str1.1
                0x0000000008003a08       0xcb /var/folders/28/_tsmhg4172s_wy7vswfkzq9h0000gn/T/arduino_cache_261188/core/core_33a28a35d5be94a4487e04df0719a759.a(timer.c.o)
 .rodata.str1.1
                0x0000000008003ad3       0x91 /var/folders/28/_tsmhg4172s_wy7vswfkzq9h0000gn/T/arduino_cache_261188/core/core_33a28a35d5be94a4487e04df0719a759.a(usb.c.o)
 .rodata.usbVcomDescriptor_iProduct
                0x0000000008003b64        0xc /var/folders/28/_tsmhg4172s_wy7vswfkzq9h0000gn/T/arduino_cache_261188/core/core_33a28a35d5be94a4487e04df0719a759.a(usb_cdcacm.c.o)
 .rodata.usbVcomDescriptor_iManufacturer
                0x0000000008003b70       0x12 /var/folders/28/_tsmhg4172s_wy7vswfkzq9h0000gn/T/arduino_cache_261188/core/core_33a28a35d5be94a4487e04df0719a759.a(usb_cdcacm.c.o)
 .rodata.usbVcomDescriptor_Device
                0x0000000008003b82       0x12 /var/folders/28/_tsmhg4172s_wy7vswfkzq9h0000gn/T/arduino_cache_261188/core/core_33a28a35d5be94a4487e04df0719a759.a(usb_cdcacm.c.o)
 .rodata.usbVcomDescriptor_Config
                0x0000000008003b94       0x43 /var/folders/28/_tsmhg4172s_wy7vswfkzq9h0000gn/T/arduino_cache_261188/core/core_33a28a35d5be94a4487e04df0719a759.a(usb_cdcacm.c.o)
 .rodata.usbVcomDescriptor_LangID
                0x0000000008003bd7        0x4 /var/folders/28/_tsmhg4172s_wy7vswfkzq9h0000gn/T/arduino_cache_261188/core/core_33a28a35d5be94a4487e04df0719a759.a(usb_cdcacm.c.o)
 .rodata.str1.1
                0x0000000008003bdb       0x3f /var/folders/28/_tsmhg4172s_wy7vswfkzq9h0000gn/T/arduino_cache_261188/core/core_33a28a35d5be94a4487e04df0719a759.a(util.c.o)
                                         0x42 (size before relaxing)
 *fill*         0x0000000008003c1a        0x6 
 .rodata._ZTV14HardwareSerial
                0x0000000008003c20       0x28 /var/folders/28/_tsmhg4172s_wy7vswfkzq9h0000gn/T/arduino_cache_261188/core/core_33a28a35d5be94a4487e04df0719a759.a(HardwareSerial.cpp.o)
                0x0000000008003c20                vtable for HardwareSerial
 .rodata.str1.1
                0x0000000008003c48       0x80 /var/folders/28/_tsmhg4172s_wy7vswfkzq9h0000gn/T/arduino_cache_261188/core/core_33a28a35d5be94a4487e04df0719a759.a(wirish_digital_f1.cpp.o)
                                         0x82 (size before relaxing)
 .rodata.str1.1
                0x0000000008003cc8       0x71 /var/folders/28/_tsmhg4172s_wy7vswfkzq9h0000gn/T/arduino_cache_261188/core/core_33a28a35d5be94a4487e04df0719a759.a(usb_serial.cpp.o)
                                         0x73 (size before relaxing)
 *fill*         0x0000000008003d39        0x7 
 .rodata._ZTV9USBSerial
                0x0000000008003d40       0x28 /var/folders/28/_tsmhg4172s_wy7vswfkzq9h0000gn/T/arduino_cache_261188/core/core_33a28a35d5be94a4487e04df0719a759.a(usb_serial.cpp.o)
                0x0000000008003d40                vtable for USBSerial
 .rodata.str1.1
                0x0000000008003d68       0x74 /var/folders/28/_tsmhg4172s_wy7vswfkzq9h0000gn/T/arduino_cache_261188/core/core_33a28a35d5be94a4487e04df0719a759.a(bkp_f1.c.o)
                                         0x76 (size before relaxing)
 .rodata.str1.1
                0x0000000008003ddc       0xad /var/folders/28/_tsmhg4172s_wy7vswfkzq9h0000gn/T/arduino_cache_261188/core/core_33a28a35d5be94a4487e04df0719a759.a(i2c.c.o)
                                         0xaf (size before relaxing)
 *fill*         0x0000000008003e89        0x3 
 .rodata.str1.4
                0x0000000008003e8c        0x4 /Users/paulgallagher/Library/Arduino15/packages/arduino/tools/arm-none-eabi-gcc/4.8.3-2014q1/bin/../lib/gcc/arm-none-eabi/4.8.3/../../../../arm-none-eabi/lib/armv7-m/libc.a(lib_a-impure.o)
 .rodata._global_impure_ptr
                0x0000000008003e90        0x4 /Users/paulgallagher/Library/Arduino15/packages/arduino/tools/arm-none-eabi-gcc/4.8.3-2014q1/bin/../lib/gcc/arm-none-eabi/4.8.3/../../../../arm-none-eabi/lib/armv7-m/libc.a(lib_a-impure.o)
                0x0000000008003e90                _global_impure_ptr
 *(.USER_FLASH)
                0x0000000008003e94                . = ALIGN (0x4)
                0x0000000008003e94                _lm_rom_img_cfgp = .
                0x0000000008003e94        0x4 LONG 0x8002e30 LOADADDR (.data)
                0x0000000020000c18                _lm_heap_start = DEFINED (_lm_heap_start)?_lm_heap_start:_end
                0x0000000020005000                _lm_heap_end = DEFINED (_lm_heap_end)?_lm_heap_end:__msp_init

.rel.dyn        0x0000000008003e98        0x0
 .rel.iplt      0x0000000000000000        0x0 /Users/paulgallagher/Library/Arduino15/packages/arduino/tools/arm-none-eabi-gcc/4.8.3-2014q1/bin/../lib/gcc/arm-none-eabi/4.8.3/armv7-m/crtbegin.o

.bss            0x0000000020000868      0x3b0
                0x0000000020000868                . = ALIGN (0x8)
                0x0000000020000868                __bss_start__ = .
 *(.bss .bss.* .gnu.linkonce.b.*)
 .bss           0x0000000020000868       0x1c /Users/paulgallagher/Library/Arduino15/packages/arduino/tools/arm-none-eabi-gcc/4.8.3-2014q1/bin/../lib/gcc/arm-none-eabi/4.8.3/armv7-m/crtbegin.o
 .bss._ZZ4loopvE6output
                0x0000000020000884        0x1 /var/folders/28/_tsmhg4172s_wy7vswfkzq9h0000gn/T/arduino_build_279421/sketch/DebugWithStlink.ino.cpp.o
 *fill*         0x0000000020000885        0x3 
 .bss.Serial1   0x0000000020000888       0x18 /var/folders/28/_tsmhg4172s_wy7vswfkzq9h0000gn/T/arduino_build_279421/core/board.cpp.o
                0x0000000020000888                Serial1
 .bss.Serial2   0x00000000200008a0       0x18 /var/folders/28/_tsmhg4172s_wy7vswfkzq9h0000gn/T/arduino_build_279421/core/board.cpp.o
                0x00000000200008a0                Serial2
 .bss.Serial3   0x00000000200008b8       0x18 /var/folders/28/_tsmhg4172s_wy7vswfkzq9h0000gn/T/arduino_build_279421/core/board.cpp.o
                0x00000000200008b8                Serial3
 .bss.exti_channels
                0x00000000200008d0       0x80 /var/folders/28/_tsmhg4172s_wy7vswfkzq9h0000gn/T/arduino_cache_261188/core/core_33a28a35d5be94a4487e04df0719a759.a(exti.c.o)
 .bss.systick_user_callback
                0x0000000020000950        0x4 /var/folders/28/_tsmhg4172s_wy7vswfkzq9h0000gn/T/arduino_cache_261188/core/core_33a28a35d5be94a4487e04df0719a759.a(systick.c.o)
 .bss.usart1_wb
                0x0000000020000954        0xc /var/folders/28/_tsmhg4172s_wy7vswfkzq9h0000gn/T/arduino_cache_261188/core/core_33a28a35d5be94a4487e04df0719a759.a(usart_f1.c.o)
 .bss.usart1_rb
                0x0000000020000960        0xc /var/folders/28/_tsmhg4172s_wy7vswfkzq9h0000gn/T/arduino_cache_261188/core/core_33a28a35d5be94a4487e04df0719a759.a(usart_f1.c.o)
 .bss.usart2_rb
                0x000000002000096c        0xc /var/folders/28/_tsmhg4172s_wy7vswfkzq9h0000gn/T/arduino_cache_261188/core/core_33a28a35d5be94a4487e04df0719a759.a(usart_f1.c.o)
 .bss.usart3_rb
                0x0000000020000978        0xc /var/folders/28/_tsmhg4172s_wy7vswfkzq9h0000gn/T/arduino_cache_261188/core/core_33a28a35d5be94a4487e04df0719a759.a(usart_f1.c.o)
 .bss.usart2_wb
                0x0000000020000984        0xc /var/folders/28/_tsmhg4172s_wy7vswfkzq9h0000gn/T/arduino_cache_261188/core/core_33a28a35d5be94a4487e04df0719a759.a(usart_f1.c.o)
 .bss.usart3_wb
                0x0000000020000990        0xc /var/folders/28/_tsmhg4172s_wy7vswfkzq9h0000gn/T/arduino_cache_261188/core/core_33a28a35d5be94a4487e04df0719a759.a(usart_f1.c.o)
 .bss.line_dtr_rts
                0x000000002000099c        0x1 /var/folders/28/_tsmhg4172s_wy7vswfkzq9h0000gn/T/arduino_cache_261188/core/core_33a28a35d5be94a4487e04df0719a759.a(usb_cdcacm.c.o)
 .bss.vcomBufferTx
                0x000000002000099d      0x100 /var/folders/28/_tsmhg4172s_wy7vswfkzq9h0000gn/T/arduino_cache_261188/core/core_33a28a35d5be94a4487e04df0719a759.a(usb_cdcacm.c.o)
 *fill*         0x0000000020000a9d        0x3 
 .bss.tx_head   0x0000000020000aa0        0x4 /var/folders/28/_tsmhg4172s_wy7vswfkzq9h0000gn/T/arduino_cache_261188/core/core_33a28a35d5be94a4487e04df0719a759.a(usb_cdcacm.c.o)
 .bss.rx_hook   0x0000000020000aa4        0x4 /var/folders/28/_tsmhg4172s_wy7vswfkzq9h0000gn/T/arduino_cache_261188/core/core_33a28a35d5be94a4487e04df0719a759.a(usb_cdcacm.c.o)
 .bss.vcomBufferRx
                0x0000000020000aa8      0x100 /var/folders/28/_tsmhg4172s_wy7vswfkzq9h0000gn/T/arduino_cache_261188/core/core_33a28a35d5be94a4487e04df0719a759.a(usb_cdcacm.c.o)
 .bss.transmitting
                0x0000000020000ba8        0x1 /var/folders/28/_tsmhg4172s_wy7vswfkzq9h0000gn/T/arduino_cache_261188/core/core_33a28a35d5be94a4487e04df0719a759.a(usb_cdcacm.c.o)
 *fill*         0x0000000020000ba9        0x3 
 .bss.rx_tail   0x0000000020000bac        0x4 /var/folders/28/_tsmhg4172s_wy7vswfkzq9h0000gn/T/arduino_cache_261188/core/core_33a28a35d5be94a4487e04df0719a759.a(usb_cdcacm.c.o)
 .bss.iface_setup_hook
                0x0000000020000bb0        0x4 /var/folders/28/_tsmhg4172s_wy7vswfkzq9h0000gn/T/arduino_cache_261188/core/core_33a28a35d5be94a4487e04df0719a759.a(usb_cdcacm.c.o)
 .bss.rx_head   0x0000000020000bb4        0x4 /var/folders/28/_tsmhg4172s_wy7vswfkzq9h0000gn/T/arduino_cache_261188/core/core_33a28a35d5be94a4487e04df0719a759.a(usb_cdcacm.c.o)
 .bss.tx_tail   0x0000000020000bb8        0x4 /var/folders/28/_tsmhg4172s_wy7vswfkzq9h0000gn/T/arduino_cache_261188/core/core_33a28a35d5be94a4487e04df0719a759.a(usb_cdcacm.c.o)
 .bss.Data_Mul_MaxPacketSize
                0x0000000020000bbc        0x1 /var/folders/28/_tsmhg4172s_wy7vswfkzq9h0000gn/T/arduino_cache_261188/core/core_33a28a35d5be94a4487e04df0719a759.a(usb_core.c.o)
                0x0000000020000bbc                Data_Mul_MaxPacketSize
 .bss._ZN9USBSerial9_hasBegunE
                0x0000000020000bbd        0x1 /var/folders/28/_tsmhg4172s_wy7vswfkzq9h0000gn/T/arduino_cache_261188/core/core_33a28a35d5be94a4487e04df0719a759.a(usb_serial.cpp.o)
                0x0000000020000bbd                USBSerial::_hasBegun
 *fill*         0x0000000020000bbe        0x2 
 .bss.Serial    0x0000000020000bc0       0x10 /var/folders/28/_tsmhg4172s_wy7vswfkzq9h0000gn/T/arduino_cache_261188/core/core_33a28a35d5be94a4487e04df0719a759.a(usb_serial.cpp.o)
                0x0000000020000bc0                Serial
 .bss._ZL11reset_state
                0x0000000020000bd0        0x1 /var/folders/28/_tsmhg4172s_wy7vswfkzq9h0000gn/T/arduino_cache_261188/core/core_33a28a35d5be94a4487e04df0719a759.a(usb_serial.cpp.o)
 *(COMMON)
 *fill*         0x0000000020000bd1        0x3 
 COMMON         0x0000000020000bd4        0x4 /var/folders/28/_tsmhg4172s_wy7vswfkzq9h0000gn/T/arduino_cache_261188/core/core_33a28a35d5be94a4487e04df0719a759.a(systick.c.o)
                0x0000000020000bd4                systick_uptime_millis
 COMMON         0x0000000020000bd8        0x6 /var/folders/28/_tsmhg4172s_wy7vswfkzq9h0000gn/T/arduino_cache_261188/core/core_33a28a35d5be94a4487e04df0719a759.a(usb.c.o)
                0x0000000020000bd8                SaveRState
                0x0000000020000bda                SaveTState
                0x0000000020000bdc                ResumeS
 COMMON         0x0000000020000bde        0x2 /var/folders/28/_tsmhg4172s_wy7vswfkzq9h0000gn/T/arduino_cache_261188/core/core_33a28a35d5be94a4487e04df0719a759.a(usb_core.c.o)
                0x0000000020000bde                StatusInfo
 COMMON         0x0000000020000be0       0x32 /var/folders/28/_tsmhg4172s_wy7vswfkzq9h0000gn/T/arduino_cache_261188/core/core_33a28a35d5be94a4487e04df0719a759.a(usb_init.c.o)
                0x0000000020000be0                SaveState
                0x0000000020000be4                pProperty
                0x0000000020000be8                EPindex
                0x0000000020000bec                Device_Info
                0x0000000020000c08                pUser_Standard_Requests
                0x0000000020000c0c                pInformation
                0x0000000020000c10                wInterrupt_Mask
                0x0000000020000c18                . = ALIGN (0x8)
 *fill*         0x0000000020000c12        0x6 
                0x0000000020000c18                __bss_end__ = .
                0x0000000020000c18                _end = __bss_end__

.stab
 *(.stab)

.stabstr
 *(.stabstr)

.debug
 *(.debug)

.line
 *(.line)

.debug_srcinfo
 *(.debug_srcinfo)

.debug_sfnames
 *(.debug_sfnames)

.debug_aranges  0x0000000000000000      0xf80
 *(.debug_aranges)
 .debug_aranges
                0x0000000000000000       0x28 /var/folders/28/_tsmhg4172s_wy7vswfkzq9h0000gn/T/arduino_build_279421/sketch/DebugWithStlink.ino.cpp.o
 .debug_aranges
                0x0000000000000028       0x20 /var/folders/28/_tsmhg4172s_wy7vswfkzq9h0000gn/T/arduino_build_279421/core/wirish/start.S.o
 .debug_aranges
                0x0000000000000048       0x20 /var/folders/28/_tsmhg4172s_wy7vswfkzq9h0000gn/T/arduino_build_279421/core/wirish/start_c.c.o
 .debug_aranges
                0x0000000000000068       0x88 /var/folders/28/_tsmhg4172s_wy7vswfkzq9h0000gn/T/arduino_build_279421/core/wirish/syscalls.c.o
 .debug_aranges
                0x00000000000000f0       0x28 /var/folders/28/_tsmhg4172s_wy7vswfkzq9h0000gn/T/arduino_build_279421/core/board.cpp.o
 .debug_aranges
                0x0000000000000118       0x40 /var/folders/28/_tsmhg4172s_wy7vswfkzq9h0000gn/T/arduino_build_279421/core/wirish/boards.cpp.o
 .debug_aranges
                0x0000000000000158       0x40 /var/folders/28/_tsmhg4172s_wy7vswfkzq9h0000gn/T/arduino_build_279421/core/wirish/boards_setup.cpp.o
 .debug_aranges
                0x0000000000000198       0x20 /var/folders/28/_tsmhg4172s_wy7vswfkzq9h0000gn/T/arduino_cache_261188/core/core_33a28a35d5be94a4487e04df0719a759.a(exc.S.o)
 .debug_aranges
                0x00000000000001b8       0x20 /var/folders/28/_tsmhg4172s_wy7vswfkzq9h0000gn/T/arduino_cache_261188/core/core_33a28a35d5be94a4487e04df0719a759.a(isrs.S.o)
 .debug_aranges
                0x00000000000001d8       0x38 /var/folders/28/_tsmhg4172s_wy7vswfkzq9h0000gn/T/arduino_cache_261188/core/core_33a28a35d5be94a4487e04df0719a759.a(adc.c.o)
 .debug_aranges
                0x0000000000000210       0x58 /var/folders/28/_tsmhg4172s_wy7vswfkzq9h0000gn/T/arduino_cache_261188/core/core_33a28a35d5be94a4487e04df0719a759.a(adc_f1.c.o)
 .debug_aranges
                0x0000000000000268       0xa8 /var/folders/28/_tsmhg4172s_wy7vswfkzq9h0000gn/T/arduino_cache_261188/core/core_33a28a35d5be94a4487e04df0719a759.a(dma_f1.c.o)
 .debug_aranges
                0x0000000000000310       0x70 /var/folders/28/_tsmhg4172s_wy7vswfkzq9h0000gn/T/arduino_cache_261188/core/core_33a28a35d5be94a4487e04df0719a759.a(exti.c.o)
 .debug_aranges
                0x0000000000000380       0x20 /var/folders/28/_tsmhg4172s_wy7vswfkzq9h0000gn/T/arduino_cache_261188/core/core_33a28a35d5be94a4487e04df0719a759.a(exti_f1.c.o)
 .debug_aranges
                0x00000000000003a0       0x20 /var/folders/28/_tsmhg4172s_wy7vswfkzq9h0000gn/T/arduino_cache_261188/core/core_33a28a35d5be94a4487e04df0719a759.a(flash.c.o)
 .debug_aranges
                0x00000000000003c0       0x40 /var/folders/28/_tsmhg4172s_wy7vswfkzq9h0000gn/T/arduino_cache_261188/core/core_33a28a35d5be94a4487e04df0719a759.a(gpio_f1.c.o)
 .debug_aranges
                0x0000000000000400       0x50 /var/folders/28/_tsmhg4172s_wy7vswfkzq9h0000gn/T/arduino_cache_261188/core/core_33a28a35d5be94a4487e04df0719a759.a(i2c_f1.c.o)
 .debug_aranges
                0x0000000000000450       0x38 /var/folders/28/_tsmhg4172s_wy7vswfkzq9h0000gn/T/arduino_cache_261188/core/core_33a28a35d5be94a4487e04df0719a759.a(nvic.c.o)
 .debug_aranges
                0x0000000000000488       0x48 /var/folders/28/_tsmhg4172s_wy7vswfkzq9h0000gn/T/arduino_cache_261188/core/core_33a28a35d5be94a4487e04df0719a759.a(rcc.c.o)
 .debug_aranges
                0x00000000000004d0       0x48 /var/folders/28/_tsmhg4172s_wy7vswfkzq9h0000gn/T/arduino_cache_261188/core/core_33a28a35d5be94a4487e04df0719a759.a(rcc_f1.c.o)
 .debug_aranges
                0x0000000000000518       0x40 /var/folders/28/_tsmhg4172s_wy7vswfkzq9h0000gn/T/arduino_cache_261188/core/core_33a28a35d5be94a4487e04df0719a759.a(systick.c.o)
 .debug_aranges
                0x0000000000000558       0xa8 /var/folders/28/_tsmhg4172s_wy7vswfkzq9h0000gn/T/arduino_cache_261188/core/core_33a28a35d5be94a4487e04df0719a759.a(timer.c.o)
 .debug_aranges
                0x0000000000000600       0x58 /var/folders/28/_tsmhg4172s_wy7vswfkzq9h0000gn/T/arduino_cache_261188/core/core_33a28a35d5be94a4487e04df0719a759.a(usart_f1.c.o)
 .debug_aranges
                0x0000000000000658       0x20 /var/folders/28/_tsmhg4172s_wy7vswfkzq9h0000gn/T/arduino_cache_261188/core/core_33a28a35d5be94a4487e04df0719a759.a(usart_private.c.o)
 .debug_aranges
                0x0000000000000678       0x38 /var/folders/28/_tsmhg4172s_wy7vswfkzq9h0000gn/T/arduino_cache_261188/core/core_33a28a35d5be94a4487e04df0719a759.a(usb.c.o)
 .debug_aranges
                0x00000000000006b0      0x120 /var/folders/28/_tsmhg4172s_wy7vswfkzq9h0000gn/T/arduino_cache_261188/core/core_33a28a35d5be94a4487e04df0719a759.a(usb_cdcacm.c.o)
 .debug_aranges
                0x00000000000007d0       0x20 /var/folders/28/_tsmhg4172s_wy7vswfkzq9h0000gn/T/arduino_cache_261188/core/core_33a28a35d5be94a4487e04df0719a759.a(usb_reg_map.c.o)
 .debug_aranges
                0x00000000000007f0       0x98 /var/folders/28/_tsmhg4172s_wy7vswfkzq9h0000gn/T/arduino_cache_261188/core/core_33a28a35d5be94a4487e04df0719a759.a(usb_core.c.o)
 .debug_aranges
                0x0000000000000888       0x20 /var/folders/28/_tsmhg4172s_wy7vswfkzq9h0000gn/T/arduino_cache_261188/core/core_33a28a35d5be94a4487e04df0719a759.a(usb_init.c.o)
 .debug_aranges
                0x00000000000008a8       0x28 /var/folders/28/_tsmhg4172s_wy7vswfkzq9h0000gn/T/arduino_cache_261188/core/core_33a28a35d5be94a4487e04df0719a759.a(usb_mem.c.o)
 .debug_aranges
                0x00000000000008d0      0x1f0 /var/folders/28/_tsmhg4172s_wy7vswfkzq9h0000gn/T/arduino_cache_261188/core/core_33a28a35d5be94a4487e04df0719a759.a(usb_regs.c.o)
 .debug_aranges
                0x0000000000000ac0       0x50 /var/folders/28/_tsmhg4172s_wy7vswfkzq9h0000gn/T/arduino_cache_261188/core/core_33a28a35d5be94a4487e04df0719a759.a(util.c.o)
 .debug_aranges
                0x0000000000000b10       0x68 /var/folders/28/_tsmhg4172s_wy7vswfkzq9h0000gn/T/arduino_cache_261188/core/core_33a28a35d5be94a4487e04df0719a759.a(HardwareSerial.cpp.o)
 .debug_aranges
                0x0000000000000b78      0x110 /var/folders/28/_tsmhg4172s_wy7vswfkzq9h0000gn/T/arduino_cache_261188/core/core_33a28a35d5be94a4487e04df0719a759.a(Print.cpp.o)
 .debug_aranges
                0x0000000000000c88       0x20 /var/folders/28/_tsmhg4172s_wy7vswfkzq9h0000gn/T/arduino_cache_261188/core/core_33a28a35d5be94a4487e04df0719a759.a(cxxabi-compat.cpp.o)
 .debug_aranges
                0x0000000000000ca8       0x28 /var/folders/28/_tsmhg4172s_wy7vswfkzq9h0000gn/T/arduino_cache_261188/core/core_33a28a35d5be94a4487e04df0719a759.a(main.cpp.o)
 .debug_aranges
                0x0000000000000cd0       0x20 /var/folders/28/_tsmhg4172s_wy7vswfkzq9h0000gn/T/arduino_cache_261188/core/core_33a28a35d5be94a4487e04df0719a759.a(wirish_digital_f1.cpp.o)
 .debug_aranges
                0x0000000000000cf0       0xc8 /var/folders/28/_tsmhg4172s_wy7vswfkzq9h0000gn/T/arduino_cache_261188/core/core_33a28a35d5be94a4487e04df0719a759.a(usb_serial.cpp.o)
 .debug_aranges
                0x0000000000000db8       0x28 /var/folders/28/_tsmhg4172s_wy7vswfkzq9h0000gn/T/arduino_cache_261188/core/core_33a28a35d5be94a4487e04df0719a759.a(wirish_digital.cpp.o)
 .debug_aranges
                0x0000000000000de0       0x28 /var/folders/28/_tsmhg4172s_wy7vswfkzq9h0000gn/T/arduino_cache_261188/core/core_33a28a35d5be94a4487e04df0719a759.a(wirish_time.cpp.o)
 .debug_aranges
                0x0000000000000e08       0x20 /var/folders/28/_tsmhg4172s_wy7vswfkzq9h0000gn/T/arduino_cache_261188/core/core_33a28a35d5be94a4487e04df0719a759.a(hooks.c.o)
 .debug_aranges
                0x0000000000000e28       0x40 /var/folders/28/_tsmhg4172s_wy7vswfkzq9h0000gn/T/arduino_cache_261188/core/core_33a28a35d5be94a4487e04df0719a759.a(bkp_f1.c.o)
 .debug_aranges
                0x0000000000000e68       0x28 /var/folders/28/_tsmhg4172s_wy7vswfkzq9h0000gn/T/arduino_cache_261188/core/core_33a28a35d5be94a4487e04df0719a759.a(dma.c.o)
 .debug_aranges
                0x0000000000000e90       0x20 /var/folders/28/_tsmhg4172s_wy7vswfkzq9h0000gn/T/arduino_cache_261188/core/core_33a28a35d5be94a4487e04df0719a759.a(gpio.c.o)
 .debug_aranges
                0x0000000000000eb0       0x60 /var/folders/28/_tsmhg4172s_wy7vswfkzq9h0000gn/T/arduino_cache_261188/core/core_33a28a35d5be94a4487e04df0719a759.a(i2c.c.o)
 .debug_aranges
                0x0000000000000f10       0x28 /var/folders/28/_tsmhg4172s_wy7vswfkzq9h0000gn/T/arduino_cache_261188/core/core_33a28a35d5be94a4487e04df0719a759.a(iwdg.c.o)
 .debug_aranges
                0x0000000000000f38       0x48 /var/folders/28/_tsmhg4172s_wy7vswfkzq9h0000gn/T/arduino_cache_261188/core/core_33a28a35d5be94a4487e04df0719a759.a(usart.c.o)

.debug_pubnames
 *(.debug_pubnames)

.debug_info     0x0000000000000000    0x204f2
 *(.debug_info .gnu.linkonce.wi.*)
 .debug_info    0x0000000000000000      0x274 /var/folders/28/_tsmhg4172s_wy7vswfkzq9h0000gn/T/arduino_build_279421/sketch/DebugWithStlink.ino.cpp.o
 .debug_info    0x0000000000000274       0xab /var/folders/28/_tsmhg4172s_wy7vswfkzq9h0000gn/T/arduino_build_279421/core/wirish/start.S.o
 .debug_info    0x000000000000031f      0x176 /var/folders/28/_tsmhg4172s_wy7vswfkzq9h0000gn/T/arduino_build_279421/core/wirish/start_c.c.o
 .debug_info    0x0000000000000495      0x5cd /var/folders/28/_tsmhg4172s_wy7vswfkzq9h0000gn/T/arduino_build_279421/core/wirish/syscalls.c.o
 .debug_info    0x0000000000000a62      0xf2c /var/folders/28/_tsmhg4172s_wy7vswfkzq9h0000gn/T/arduino_build_279421/core/board.cpp.o
 .debug_info    0x000000000000198e     0x142d /var/folders/28/_tsmhg4172s_wy7vswfkzq9h0000gn/T/arduino_build_279421/core/wirish/boards.cpp.o
 .debug_info    0x0000000000002dbb     0x10c3 /var/folders/28/_tsmhg4172s_wy7vswfkzq9h0000gn/T/arduino_build_279421/core/wirish/boards_setup.cpp.o
 .debug_info    0x0000000000003e7e       0x9b /var/folders/28/_tsmhg4172s_wy7vswfkzq9h0000gn/T/arduino_cache_261188/core/core_33a28a35d5be94a4487e04df0719a759.a(exc.S.o)
 .debug_info    0x0000000000003f19       0xb0 /var/folders/28/_tsmhg4172s_wy7vswfkzq9h0000gn/T/arduino_cache_261188/core/core_33a28a35d5be94a4487e04df0719a759.a(isrs.S.o)
 .debug_info    0x0000000000003fc9      0x79a /var/folders/28/_tsmhg4172s_wy7vswfkzq9h0000gn/T/arduino_cache_261188/core/core_33a28a35d5be94a4487e04df0719a759.a(adc.c.o)
 .debug_info    0x0000000000004763      0xe4a /var/folders/28/_tsmhg4172s_wy7vswfkzq9h0000gn/T/arduino_cache_261188/core/core_33a28a35d5be94a4487e04df0719a759.a(adc_f1.c.o)
 .debug_info    0x00000000000055ad     0x1cbb /var/folders/28/_tsmhg4172s_wy7vswfkzq9h0000gn/T/arduino_cache_261188/core/core_33a28a35d5be94a4487e04df0719a759.a(dma_f1.c.o)
 .debug_info    0x0000000000007268      0xf36 /var/folders/28/_tsmhg4172s_wy7vswfkzq9h0000gn/T/arduino_cache_261188/core/core_33a28a35d5be94a4487e04df0719a759.a(exti.c.o)
 .debug_info    0x000000000000819e      0x213 /var/folders/28/_tsmhg4172s_wy7vswfkzq9h0000gn/T/arduino_cache_261188/core/core_33a28a35d5be94a4487e04df0719a759.a(exti_f1.c.o)
 .debug_info    0x00000000000083b1      0x128 /var/folders/28/_tsmhg4172s_wy7vswfkzq9h0000gn/T/arduino_cache_261188/core/core_33a28a35d5be94a4487e04df0719a759.a(flash.c.o)
 .debug_info    0x00000000000084d9      0x6d6 /var/folders/28/_tsmhg4172s_wy7vswfkzq9h0000gn/T/arduino_cache_261188/core/core_33a28a35d5be94a4487e04df0719a759.a(gpio_f1.c.o)
 .debug_info    0x0000000000008baf      0xbd5 /var/folders/28/_tsmhg4172s_wy7vswfkzq9h0000gn/T/arduino_cache_261188/core/core_33a28a35d5be94a4487e04df0719a759.a(i2c_f1.c.o)
 .debug_info    0x0000000000009784      0x5a2 /var/folders/28/_tsmhg4172s_wy7vswfkzq9h0000gn/T/arduino_cache_261188/core/core_33a28a35d5be94a4487e04df0719a759.a(nvic.c.o)
 .debug_info    0x0000000000009d26      0x556 /var/folders/28/_tsmhg4172s_wy7vswfkzq9h0000gn/T/arduino_cache_261188/core/core_33a28a35d5be94a4487e04df0719a759.a(rcc.c.o)
 .debug_info    0x000000000000a27c      0xc01 /var/folders/28/_tsmhg4172s_wy7vswfkzq9h0000gn/T/arduino_cache_261188/core/core_33a28a35d5be94a4487e04df0719a759.a(rcc_f1.c.o)
 .debug_info    0x000000000000ae7d      0x182 /var/folders/28/_tsmhg4172s_wy7vswfkzq9h0000gn/T/arduino_cache_261188/core/core_33a28a35d5be94a4487e04df0719a759.a(systick.c.o)
 .debug_info    0x000000000000afff     0x1c88 /var/folders/28/_tsmhg4172s_wy7vswfkzq9h0000gn/T/arduino_cache_261188/core/core_33a28a35d5be94a4487e04df0719a759.a(timer.c.o)
 .debug_info    0x000000000000cc87      0xc1b /var/folders/28/_tsmhg4172s_wy7vswfkzq9h0000gn/T/arduino_cache_261188/core/core_33a28a35d5be94a4487e04df0719a759.a(usart_f1.c.o)
 .debug_info    0x000000000000d8a2      0x595 /var/folders/28/_tsmhg4172s_wy7vswfkzq9h0000gn/T/arduino_cache_261188/core/core_33a28a35d5be94a4487e04df0719a759.a(usart_private.c.o)
 .debug_info    0x000000000000de37      0xd9b /var/folders/28/_tsmhg4172s_wy7vswfkzq9h0000gn/T/arduino_cache_261188/core/core_33a28a35d5be94a4487e04df0719a759.a(usb.c.o)
 .debug_info    0x000000000000ebd2     0x22ae /var/folders/28/_tsmhg4172s_wy7vswfkzq9h0000gn/T/arduino_cache_261188/core/core_33a28a35d5be94a4487e04df0719a759.a(usb_cdcacm.c.o)
 .debug_info    0x0000000000010e80      0x26c /var/folders/28/_tsmhg4172s_wy7vswfkzq9h0000gn/T/arduino_cache_261188/core/core_33a28a35d5be94a4487e04df0719a759.a(usb_reg_map.c.o)
 .debug_info    0x00000000000110ec      0xddf /var/folders/28/_tsmhg4172s_wy7vswfkzq9h0000gn/T/arduino_cache_261188/core/core_33a28a35d5be94a4487e04df0719a759.a(usb_core.c.o)
 .debug_info    0x0000000000011ecb      0x3ed /var/folders/28/_tsmhg4172s_wy7vswfkzq9h0000gn/T/arduino_cache_261188/core/core_33a28a35d5be94a4487e04df0719a759.a(usb_init.c.o)
 .debug_info    0x00000000000122b8      0x17b /var/folders/28/_tsmhg4172s_wy7vswfkzq9h0000gn/T/arduino_cache_261188/core/core_33a28a35d5be94a4487e04df0719a759.a(usb_mem.c.o)
 .debug_info    0x0000000000012433      0xc88 /var/folders/28/_tsmhg4172s_wy7vswfkzq9h0000gn/T/arduino_cache_261188/core/core_33a28a35d5be94a4487e04df0719a759.a(usb_regs.c.o)
 .debug_info    0x00000000000130bb      0xad2 /var/folders/28/_tsmhg4172s_wy7vswfkzq9h0000gn/T/arduino_cache_261188/core/core_33a28a35d5be94a4487e04df0719a759.a(util.c.o)
 .debug_info    0x0000000000013b8d     0x2a1a /var/folders/28/_tsmhg4172s_wy7vswfkzq9h0000gn/T/arduino_cache_261188/core/core_33a28a35d5be94a4487e04df0719a759.a(HardwareSerial.cpp.o)
 .debug_info    0x00000000000165a7     0x258a /var/folders/28/_tsmhg4172s_wy7vswfkzq9h0000gn/T/arduino_cache_261188/core/core_33a28a35d5be94a4487e04df0719a759.a(Print.cpp.o)
 .debug_info    0x0000000000018b31       0x33 /var/folders/28/_tsmhg4172s_wy7vswfkzq9h0000gn/T/arduino_cache_261188/core/core_33a28a35d5be94a4487e04df0719a759.a(cxxabi-compat.cpp.o)
 .debug_info    0x0000000000018b64       0x99 /var/folders/28/_tsmhg4172s_wy7vswfkzq9h0000gn/T/arduino_cache_261188/core/core_33a28a35d5be94a4487e04df0719a759.a(main.cpp.o)
 .debug_info    0x0000000000018bfd      0xcdd /var/folders/28/_tsmhg4172s_wy7vswfkzq9h0000gn/T/arduino_cache_261188/core/core_33a28a35d5be94a4487e04df0719a759.a(wirish_digital_f1.cpp.o)
 .debug_info    0x00000000000198da     0x2b77 /var/folders/28/_tsmhg4172s_wy7vswfkzq9h0000gn/T/arduino_cache_261188/core/core_33a28a35d5be94a4487e04df0719a759.a(usb_serial.cpp.o)
 .debug_info    0x000000000001c451      0xb0b /var/folders/28/_tsmhg4172s_wy7vswfkzq9h0000gn/T/arduino_cache_261188/core/core_33a28a35d5be94a4487e04df0719a759.a(wirish_digital.cpp.o)
 .debug_info    0x000000000001cf5c      0x21f /var/folders/28/_tsmhg4172s_wy7vswfkzq9h0000gn/T/arduino_cache_261188/core/core_33a28a35d5be94a4487e04df0719a759.a(wirish_time.cpp.o)
 .debug_info    0x000000000001d17b       0x33 /var/folders/28/_tsmhg4172s_wy7vswfkzq9h0000gn/T/arduino_cache_261188/core/core_33a28a35d5be94a4487e04df0719a759.a(hooks.c.o)
 .debug_info    0x000000000001d1ae      0x549 /var/folders/28/_tsmhg4172s_wy7vswfkzq9h0000gn/T/arduino_cache_261188/core/core_33a28a35d5be94a4487e04df0719a759.a(bkp_f1.c.o)
 .debug_info    0x000000000001d6f7      0x74e /var/folders/28/_tsmhg4172s_wy7vswfkzq9h0000gn/T/arduino_cache_261188/core/core_33a28a35d5be94a4487e04df0719a759.a(dma.c.o)
 .debug_info    0x000000000001de45      0x313 /var/folders/28/_tsmhg4172s_wy7vswfkzq9h0000gn/T/arduino_cache_261188/core/core_33a28a35d5be94a4487e04df0719a759.a(gpio.c.o)
 .debug_info    0x000000000001e158     0x15fd /var/folders/28/_tsmhg4172s_wy7vswfkzq9h0000gn/T/arduino_cache_261188/core/core_33a28a35d5be94a4487e04df0719a759.a(i2c.c.o)
 .debug_info    0x000000000001f755      0x16b /var/folders/28/_tsmhg4172s_wy7vswfkzq9h0000gn/T/arduino_cache_261188/core/core_33a28a35d5be94a4487e04df0719a759.a(iwdg.c.o)
 .debug_info    0x000000000001f8c0      0xc32 /var/folders/28/_tsmhg4172s_wy7vswfkzq9h0000gn/T/arduino_cache_261188/core/core_33a28a35d5be94a4487e04df0719a759.a(usart.c.o)

.debug_abbrev   0x0000000000000000     0x6165
 *(.debug_abbrev)
 .debug_abbrev  0x0000000000000000      0x13d /var/folders/28/_tsmhg4172s_wy7vswfkzq9h0000gn/T/arduino_build_279421/sketch/DebugWithStlink.ino.cpp.o
 .debug_abbrev  0x000000000000013d       0x14 /var/folders/28/_tsmhg4172s_wy7vswfkzq9h0000gn/T/arduino_build_279421/core/wirish/start.S.o
 .debug_abbrev  0x0000000000000151      0x11f /var/folders/28/_tsmhg4172s_wy7vswfkzq9h0000gn/T/arduino_build_279421/core/wirish/start_c.c.o
 .debug_abbrev  0x0000000000000270      0x17e /var/folders/28/_tsmhg4172s_wy7vswfkzq9h0000gn/T/arduino_build_279421/core/wirish/syscalls.c.o
 .debug_abbrev  0x00000000000003ee      0x1ea /var/folders/28/_tsmhg4172s_wy7vswfkzq9h0000gn/T/arduino_build_279421/core/board.cpp.o
 .debug_abbrev  0x00000000000005d8      0x3dd /var/folders/28/_tsmhg4172s_wy7vswfkzq9h0000gn/T/arduino_build_279421/core/wirish/boards.cpp.o
 .debug_abbrev  0x00000000000009b5      0x2af /var/folders/28/_tsmhg4172s_wy7vswfkzq9h0000gn/T/arduino_build_279421/core/wirish/boards_setup.cpp.o
 .debug_abbrev  0x0000000000000c64       0x14 /var/folders/28/_tsmhg4172s_wy7vswfkzq9h0000gn/T/arduino_cache_261188/core/core_33a28a35d5be94a4487e04df0719a759.a(exc.S.o)
 .debug_abbrev  0x0000000000000c78       0x14 /var/folders/28/_tsmhg4172s_wy7vswfkzq9h0000gn/T/arduino_cache_261188/core/core_33a28a35d5be94a4487e04df0719a759.a(isrs.S.o)
 .debug_abbrev  0x0000000000000c8c      0x20b /var/folders/28/_tsmhg4172s_wy7vswfkzq9h0000gn/T/arduino_cache_261188/core/core_33a28a35d5be94a4487e04df0719a759.a(adc.c.o)
 .debug_abbrev  0x0000000000000e97      0x2e6 /var/folders/28/_tsmhg4172s_wy7vswfkzq9h0000gn/T/arduino_cache_261188/core/core_33a28a35d5be94a4487e04df0719a759.a(adc_f1.c.o)
 .debug_abbrev  0x000000000000117d      0x3ff /var/folders/28/_tsmhg4172s_wy7vswfkzq9h0000gn/T/arduino_cache_261188/core/core_33a28a35d5be94a4487e04df0719a759.a(dma_f1.c.o)
 .debug_abbrev  0x000000000000157c      0x2cc /var/folders/28/_tsmhg4172s_wy7vswfkzq9h0000gn/T/arduino_cache_261188/core/core_33a28a35d5be94a4487e04df0719a759.a(exti.c.o)
 .debug_abbrev  0x0000000000001848       0xdb /var/folders/28/_tsmhg4172s_wy7vswfkzq9h0000gn/T/arduino_cache_261188/core/core_33a28a35d5be94a4487e04df0719a759.a(exti_f1.c.o)
 .debug_abbrev  0x0000000000001923       0x9f /var/folders/28/_tsmhg4172s_wy7vswfkzq9h0000gn/T/arduino_cache_261188/core/core_33a28a35d5be94a4487e04df0719a759.a(flash.c.o)
 .debug_abbrev  0x00000000000019c2      0x191 /var/folders/28/_tsmhg4172s_wy7vswfkzq9h0000gn/T/arduino_cache_261188/core/core_33a28a35d5be94a4487e04df0719a759.a(gpio_f1.c.o)
 .debug_abbrev  0x0000000000001b53      0x202 /var/folders/28/_tsmhg4172s_wy7vswfkzq9h0000gn/T/arduino_cache_261188/core/core_33a28a35d5be94a4487e04df0719a759.a(i2c_f1.c.o)
 .debug_abbrev  0x0000000000001d55      0x1ac /var/folders/28/_tsmhg4172s_wy7vswfkzq9h0000gn/T/arduino_cache_261188/core/core_33a28a35d5be94a4487e04df0719a759.a(nvic.c.o)
 .debug_abbrev  0x0000000000001f01      0x17f /var/folders/28/_tsmhg4172s_wy7vswfkzq9h0000gn/T/arduino_cache_261188/core/core_33a28a35d5be94a4487e04df0719a759.a(rcc.c.o)
 .debug_abbrev  0x0000000000002080      0x28c /var/folders/28/_tsmhg4172s_wy7vswfkzq9h0000gn/T/arduino_cache_261188/core/core_33a28a35d5be94a4487e04df0719a759.a(rcc_f1.c.o)
 .debug_abbrev  0x000000000000230c      0x10f /var/folders/28/_tsmhg4172s_wy7vswfkzq9h0000gn/T/arduino_cache_261188/core/core_33a28a35d5be94a4487e04df0719a759.a(systick.c.o)
 .debug_abbrev  0x000000000000241b      0x471 /var/folders/28/_tsmhg4172s_wy7vswfkzq9h0000gn/T/arduino_cache_261188/core/core_33a28a35d5be94a4487e04df0719a759.a(timer.c.o)
 .debug_abbrev  0x000000000000288c      0x29b /var/folders/28/_tsmhg4172s_wy7vswfkzq9h0000gn/T/arduino_cache_261188/core/core_33a28a35d5be94a4487e04df0719a759.a(usart_f1.c.o)
 .debug_abbrev  0x0000000000002b27      0x144 /var/folders/28/_tsmhg4172s_wy7vswfkzq9h0000gn/T/arduino_cache_261188/core/core_33a28a35d5be94a4487e04df0719a759.a(usart_private.c.o)
 .debug_abbrev  0x0000000000002c6b      0x343 /var/folders/28/_tsmhg4172s_wy7vswfkzq9h0000gn/T/arduino_cache_261188/core/core_33a28a35d5be94a4487e04df0719a759.a(usb.c.o)
 .debug_abbrev  0x0000000000002fae      0x47d /var/folders/28/_tsmhg4172s_wy7vswfkzq9h0000gn/T/arduino_cache_261188/core/core_33a28a35d5be94a4487e04df0719a759.a(usb_cdcacm.c.o)
 .debug_abbrev  0x000000000000342b      0x193 /var/folders/28/_tsmhg4172s_wy7vswfkzq9h0000gn/T/arduino_cache_261188/core/core_33a28a35d5be94a4487e04df0719a759.a(usb_reg_map.c.o)
 .debug_abbrev  0x00000000000035be      0x3a6 /var/folders/28/_tsmhg4172s_wy7vswfkzq9h0000gn/T/arduino_cache_261188/core/core_33a28a35d5be94a4487e04df0719a759.a(usb_core.c.o)
 .debug_abbrev  0x0000000000003964      0x101 /var/folders/28/_tsmhg4172s_wy7vswfkzq9h0000gn/T/arduino_cache_261188/core/core_33a28a35d5be94a4487e04df0719a759.a(usb_init.c.o)
 .debug_abbrev  0x0000000000003a65       0x90 /var/folders/28/_tsmhg4172s_wy7vswfkzq9h0000gn/T/arduino_cache_261188/core/core_33a28a35d5be94a4487e04df0719a759.a(usb_mem.c.o)
 .debug_abbrev  0x0000000000003af5      0x1f3 /var/folders/28/_tsmhg4172s_wy7vswfkzq9h0000gn/T/arduino_cache_261188/core/core_33a28a35d5be94a4487e04df0719a759.a(usb_regs.c.o)
 .debug_abbrev  0x0000000000003ce8      0x2c9 /var/folders/28/_tsmhg4172s_wy7vswfkzq9h0000gn/T/arduino_cache_261188/core/core_33a28a35d5be94a4487e04df0719a759.a(util.c.o)
 .debug_abbrev  0x0000000000003fb1      0x524 /var/folders/28/_tsmhg4172s_wy7vswfkzq9h0000gn/T/arduino_cache_261188/core/core_33a28a35d5be94a4487e04df0719a759.a(HardwareSerial.cpp.o)
 .debug_abbrev  0x00000000000044d5      0x414 /var/folders/28/_tsmhg4172s_wy7vswfkzq9h0000gn/T/arduino_cache_261188/core/core_33a28a35d5be94a4487e04df0719a759.a(Print.cpp.o)
 .debug_abbrev  0x00000000000048e9       0x28 /var/folders/28/_tsmhg4172s_wy7vswfkzq9h0000gn/T/arduino_cache_261188/core/core_33a28a35d5be94a4487e04df0719a759.a(cxxabi-compat.cpp.o)
 .debug_abbrev  0x0000000000004911       0x7b /var/folders/28/_tsmhg4172s_wy7vswfkzq9h0000gn/T/arduino_cache_261188/core/core_33a28a35d5be94a4487e04df0719a759.a(main.cpp.o)
 .debug_abbrev  0x000000000000498c      0x250 /var/folders/28/_tsmhg4172s_wy7vswfkzq9h0000gn/T/arduino_cache_261188/core/core_33a28a35d5be94a4487e04df0719a759.a(wirish_digital_f1.cpp.o)
 .debug_abbrev  0x0000000000004bdc      0x65c /var/folders/28/_tsmhg4172s_wy7vswfkzq9h0000gn/T/arduino_cache_261188/core/core_33a28a35d5be94a4487e04df0719a759.a(usb_serial.cpp.o)
 .debug_abbrev  0x0000000000005238      0x17e /var/folders/28/_tsmhg4172s_wy7vswfkzq9h0000gn/T/arduino_cache_261188/core/core_33a28a35d5be94a4487e04df0719a759.a(wirish_digital.cpp.o)
 .debug_abbrev  0x00000000000053b6      0x155 /var/folders/28/_tsmhg4172s_wy7vswfkzq9h0000gn/T/arduino_cache_261188/core/core_33a28a35d5be94a4487e04df0719a759.a(wirish_time.cpp.o)
 .debug_abbrev  0x000000000000550b       0x26 /var/folders/28/_tsmhg4172s_wy7vswfkzq9h0000gn/T/arduino_cache_261188/core/core_33a28a35d5be94a4487e04df0719a759.a(hooks.c.o)
 .debug_abbrev  0x0000000000005531      0x1b1 /var/folders/28/_tsmhg4172s_wy7vswfkzq9h0000gn/T/arduino_cache_261188/core/core_33a28a35d5be94a4487e04df0719a759.a(bkp_f1.c.o)
 .debug_abbrev  0x00000000000056e2      0x19d /var/folders/28/_tsmhg4172s_wy7vswfkzq9h0000gn/T/arduino_cache_261188/core/core_33a28a35d5be94a4487e04df0719a759.a(dma.c.o)
 .debug_abbrev  0x000000000000587f      0x113 /var/folders/28/_tsmhg4172s_wy7vswfkzq9h0000gn/T/arduino_cache_261188/core/core_33a28a35d5be94a4487e04df0719a759.a(gpio.c.o)
 .debug_abbrev  0x0000000000005992      0x409 /var/folders/28/_tsmhg4172s_wy7vswfkzq9h0000gn/T/arduino_cache_261188/core/core_33a28a35d5be94a4487e04df0719a759.a(i2c.c.o)
 .debug_abbrev  0x0000000000005d9b       0xcb /var/folders/28/_tsmhg4172s_wy7vswfkzq9h0000gn/T/arduino_cache_261188/core/core_33a28a35d5be94a4487e04df0719a759.a(iwdg.c.o)
 .debug_abbrev  0x0000000000005e66      0x2ff /var/folders/28/_tsmhg4172s_wy7vswfkzq9h0000gn/T/arduino_cache_261188/core/core_33a28a35d5be94a4487e04df0719a759.a(usart.c.o)

.debug_line     0x0000000000000000     0xab97
 *(.debug_line)
 .debug_line    0x0000000000000000      0x376 /var/folders/28/_tsmhg4172s_wy7vswfkzq9h0000gn/T/arduino_build_279421/sketch/DebugWithStlink.ino.cpp.o
 .debug_line    0x0000000000000376       0xb5 /var/folders/28/_tsmhg4172s_wy7vswfkzq9h0000gn/T/arduino_build_279421/core/wirish/start.S.o
 .debug_line    0x000000000000042b       0xc6 /var/folders/28/_tsmhg4172s_wy7vswfkzq9h0000gn/T/arduino_build_279421/core/wirish/start_c.c.o
 .debug_line    0x00000000000004f1      0x30b /var/folders/28/_tsmhg4172s_wy7vswfkzq9h0000gn/T/arduino_build_279421/core/wirish/syscalls.c.o
 .debug_line    0x00000000000007fc      0x458 /var/folders/28/_tsmhg4172s_wy7vswfkzq9h0000gn/T/arduino_build_279421/core/board.cpp.o
 .debug_line    0x0000000000000c54      0x4cf /var/folders/28/_tsmhg4172s_wy7vswfkzq9h0000gn/T/arduino_build_279421/core/wirish/boards.cpp.o
 .debug_line    0x0000000000001123      0x4ba /var/folders/28/_tsmhg4172s_wy7vswfkzq9h0000gn/T/arduino_build_279421/core/wirish/boards_setup.cpp.o
 .debug_line    0x00000000000015dd       0xb8 /var/folders/28/_tsmhg4172s_wy7vswfkzq9h0000gn/T/arduino_cache_261188/core/core_33a28a35d5be94a4487e04df0719a759.a(exc.S.o)
 .debug_line    0x0000000000001695       0xb5 /var/folders/28/_tsmhg4172s_wy7vswfkzq9h0000gn/T/arduino_cache_261188/core/core_33a28a35d5be94a4487e04df0719a759.a(isrs.S.o)
 .debug_line    0x000000000000174a      0x345 /var/folders/28/_tsmhg4172s_wy7vswfkzq9h0000gn/T/arduino_cache_261188/core/core_33a28a35d5be94a4487e04df0719a759.a(adc.c.o)
 .debug_line    0x0000000000001a8f      0x3f1 /var/folders/28/_tsmhg4172s_wy7vswfkzq9h0000gn/T/arduino_cache_261188/core/core_33a28a35d5be94a4487e04df0719a759.a(adc_f1.c.o)
 .debug_line    0x0000000000001e80      0x74a /var/folders/28/_tsmhg4172s_wy7vswfkzq9h0000gn/T/arduino_cache_261188/core/core_33a28a35d5be94a4487e04df0719a759.a(dma_f1.c.o)
 .debug_line    0x00000000000025ca      0x46c /var/folders/28/_tsmhg4172s_wy7vswfkzq9h0000gn/T/arduino_cache_261188/core/core_33a28a35d5be94a4487e04df0719a759.a(exti.c.o)
 .debug_line    0x0000000000002a36      0x348 /var/folders/28/_tsmhg4172s_wy7vswfkzq9h0000gn/T/arduino_cache_261188/core/core_33a28a35d5be94a4487e04df0719a759.a(exti_f1.c.o)
 .debug_line    0x0000000000002d7e      0x2c7 /var/folders/28/_tsmhg4172s_wy7vswfkzq9h0000gn/T/arduino_cache_261188/core/core_33a28a35d5be94a4487e04df0719a759.a(flash.c.o)
 .debug_line    0x0000000000003045      0x35c /var/folders/28/_tsmhg4172s_wy7vswfkzq9h0000gn/T/arduino_cache_261188/core/core_33a28a35d5be94a4487e04df0719a759.a(gpio_f1.c.o)
 .debug_line    0x00000000000033a1      0x458 /var/folders/28/_tsmhg4172s_wy7vswfkzq9h0000gn/T/arduino_cache_261188/core/core_33a28a35d5be94a4487e04df0719a759.a(i2c_f1.c.o)
 .debug_line    0x00000000000037f9      0x32f /var/folders/28/_tsmhg4172s_wy7vswfkzq9h0000gn/T/arduino_cache_261188/core/core_33a28a35d5be94a4487e04df0719a759.a(nvic.c.o)
 .debug_line    0x0000000000003b28      0x3c9 /var/folders/28/_tsmhg4172s_wy7vswfkzq9h0000gn/T/arduino_cache_261188/core/core_33a28a35d5be94a4487e04df0719a759.a(rcc.c.o)
 .debug_line    0x0000000000003ef1      0x43c /var/folders/28/_tsmhg4172s_wy7vswfkzq9h0000gn/T/arduino_cache_261188/core/core_33a28a35d5be94a4487e04df0719a759.a(rcc_f1.c.o)
 .debug_line    0x000000000000432d      0x298 /var/folders/28/_tsmhg4172s_wy7vswfkzq9h0000gn/T/arduino_cache_261188/core/core_33a28a35d5be94a4487e04df0719a759.a(systick.c.o)
 .debug_line    0x00000000000045c5      0x638 /var/folders/28/_tsmhg4172s_wy7vswfkzq9h0000gn/T/arduino_cache_261188/core/core_33a28a35d5be94a4487e04df0719a759.a(timer.c.o)
 .debug_line    0x0000000000004bfd      0x494 /var/folders/28/_tsmhg4172s_wy7vswfkzq9h0000gn/T/arduino_cache_261188/core/core_33a28a35d5be94a4487e04df0719a759.a(usart_f1.c.o)
 .debug_line    0x0000000000005091      0x303 /var/folders/28/_tsmhg4172s_wy7vswfkzq9h0000gn/T/arduino_cache_261188/core/core_33a28a35d5be94a4487e04df0719a759.a(usart_private.c.o)
 .debug_line    0x0000000000005394      0x554 /var/folders/28/_tsmhg4172s_wy7vswfkzq9h0000gn/T/arduino_cache_261188/core/core_33a28a35d5be94a4487e04df0719a759.a(usb.c.o)
 .debug_line    0x00000000000058e8      0x937 /var/folders/28/_tsmhg4172s_wy7vswfkzq9h0000gn/T/arduino_cache_261188/core/core_33a28a35d5be94a4487e04df0719a759.a(usb_cdcacm.c.o)
 .debug_line    0x000000000000621f      0x2f8 /var/folders/28/_tsmhg4172s_wy7vswfkzq9h0000gn/T/arduino_cache_261188/core/core_33a28a35d5be94a4487e04df0719a759.a(usb_reg_map.c.o)
 .debug_line    0x0000000000006517      0x433 /var/folders/28/_tsmhg4172s_wy7vswfkzq9h0000gn/T/arduino_cache_261188/core/core_33a28a35d5be94a4487e04df0719a759.a(usb_core.c.o)
 .debug_line    0x000000000000694a      0x148 /var/folders/28/_tsmhg4172s_wy7vswfkzq9h0000gn/T/arduino_cache_261188/core/core_33a28a35d5be94a4487e04df0719a759.a(usb_init.c.o)
 .debug_line    0x0000000000006a92      0x174 /var/folders/28/_tsmhg4172s_wy7vswfkzq9h0000gn/T/arduino_cache_261188/core/core_33a28a35d5be94a4487e04df0719a759.a(usb_mem.c.o)
 .debug_line    0x0000000000006c06      0x5ac /var/folders/28/_tsmhg4172s_wy7vswfkzq9h0000gn/T/arduino_cache_261188/core/core_33a28a35d5be94a4487e04df0719a759.a(usb_regs.c.o)
 .debug_line    0x00000000000071b2      0x3cb /var/folders/28/_tsmhg4172s_wy7vswfkzq9h0000gn/T/arduino_cache_261188/core/core_33a28a35d5be94a4487e04df0719a759.a(util.c.o)
 .debug_line    0x000000000000757d      0x53a /var/folders/28/_tsmhg4172s_wy7vswfkzq9h0000gn/T/arduino_cache_261188/core/core_33a28a35d5be94a4487e04df0719a759.a(HardwareSerial.cpp.o)
 .debug_line    0x0000000000007ab7      0x5ca /var/folders/28/_tsmhg4172s_wy7vswfkzq9h0000gn/T/arduino_cache_261188/core/core_33a28a35d5be94a4487e04df0719a759.a(Print.cpp.o)
 .debug_line    0x0000000000008081       0xa1 /var/folders/28/_tsmhg4172s_wy7vswfkzq9h0000gn/T/arduino_cache_261188/core/core_33a28a35d5be94a4487e04df0719a759.a(cxxabi-compat.cpp.o)
 .debug_line    0x0000000000008122       0xb0 /var/folders/28/_tsmhg4172s_wy7vswfkzq9h0000gn/T/arduino_cache_261188/core/core_33a28a35d5be94a4487e04df0719a759.a(main.cpp.o)
 .debug_line    0x00000000000081d2      0x407 /var/folders/28/_tsmhg4172s_wy7vswfkzq9h0000gn/T/arduino_cache_261188/core/core_33a28a35d5be94a4487e04df0719a759.a(wirish_digital_f1.cpp.o)
 .debug_line    0x00000000000085d9      0x6de /var/folders/28/_tsmhg4172s_wy7vswfkzq9h0000gn/T/arduino_cache_261188/core/core_33a28a35d5be94a4487e04df0719a759.a(usb_serial.cpp.o)
 .debug_line    0x0000000000008cb7      0x379 /var/folders/28/_tsmhg4172s_wy7vswfkzq9h0000gn/T/arduino_cache_261188/core/core_33a28a35d5be94a4487e04df0719a759.a(wirish_digital.cpp.o)
 .debug_line    0x0000000000009030      0x334 /var/folders/28/_tsmhg4172s_wy7vswfkzq9h0000gn/T/arduino_cache_261188/core/core_33a28a35d5be94a4487e04df0719a759.a(wirish_time.cpp.o)
 .debug_line    0x0000000000009364       0x99 /var/folders/28/_tsmhg4172s_wy7vswfkzq9h0000gn/T/arduino_cache_261188/core/core_33a28a35d5be94a4487e04df0719a759.a(hooks.c.o)
 .debug_line    0x00000000000093fd      0x359 /var/folders/28/_tsmhg4172s_wy7vswfkzq9h0000gn/T/arduino_cache_261188/core/core_33a28a35d5be94a4487e04df0719a759.a(bkp_f1.c.o)
 .debug_line    0x0000000000009756      0x3a2 /var/folders/28/_tsmhg4172s_wy7vswfkzq9h0000gn/T/arduino_cache_261188/core/core_33a28a35d5be94a4487e04df0719a759.a(dma.c.o)
 .debug_line    0x0000000000009af8      0x2ec /var/folders/28/_tsmhg4172s_wy7vswfkzq9h0000gn/T/arduino_cache_261188/core/core_33a28a35d5be94a4487e04df0719a759.a(gpio.c.o)
 .debug_line    0x0000000000009de4      0x6fa /var/folders/28/_tsmhg4172s_wy7vswfkzq9h0000gn/T/arduino_cache_261188/core/core_33a28a35d5be94a4487e04df0719a759.a(i2c.c.o)
 .debug_line    0x000000000000a4de      0x25c /var/folders/28/_tsmhg4172s_wy7vswfkzq9h0000gn/T/arduino_cache_261188/core/core_33a28a35d5be94a4487e04df0719a759.a(iwdg.c.o)
 .debug_line    0x000000000000a73a      0x45d /var/folders/28/_tsmhg4172s_wy7vswfkzq9h0000gn/T/arduino_cache_261188/core/core_33a28a35d5be94a4487e04df0719a759.a(usart.c.o)

.debug_frame    0x0000000000000000     0x23a4
 *(.debug_frame)
 .debug_frame   0x0000000000000000       0x38 /var/folders/28/_tsmhg4172s_wy7vswfkzq9h0000gn/T/arduino_build_279421/sketch/DebugWithStlink.ino.cpp.o
 .debug_frame   0x0000000000000038       0x28 /var/folders/28/_tsmhg4172s_wy7vswfkzq9h0000gn/T/arduino_build_279421/core/wirish/start_c.c.o
 .debug_frame   0x0000000000000060      0x130 /var/folders/28/_tsmhg4172s_wy7vswfkzq9h0000gn/T/arduino_build_279421/core/wirish/syscalls.c.o
 .debug_frame   0x0000000000000190       0x38 /var/folders/28/_tsmhg4172s_wy7vswfkzq9h0000gn/T/arduino_build_279421/core/board.cpp.o
 .debug_frame   0x00000000000001c8       0x84 /var/folders/28/_tsmhg4172s_wy7vswfkzq9h0000gn/T/arduino_build_279421/core/wirish/boards.cpp.o
 .debug_frame   0x000000000000024c       0x74 /var/folders/28/_tsmhg4172s_wy7vswfkzq9h0000gn/T/arduino_build_279421/core/wirish/boards_setup.cpp.o
 .debug_frame   0x00000000000002c0       0x64 /var/folders/28/_tsmhg4172s_wy7vswfkzq9h0000gn/T/arduino_cache_261188/core/core_33a28a35d5be94a4487e04df0719a759.a(adc.c.o)
 .debug_frame   0x0000000000000324       0xb4 /var/folders/28/_tsmhg4172s_wy7vswfkzq9h0000gn/T/arduino_cache_261188/core/core_33a28a35d5be94a4487e04df0719a759.a(adc_f1.c.o)
 .debug_frame   0x00000000000003d8      0x1d0 /var/folders/28/_tsmhg4172s_wy7vswfkzq9h0000gn/T/arduino_cache_261188/core/core_33a28a35d5be94a4487e04df0719a759.a(dma_f1.c.o)
 .debug_frame   0x00000000000005a8      0x12c /var/folders/28/_tsmhg4172s_wy7vswfkzq9h0000gn/T/arduino_cache_261188/core/core_33a28a35d5be94a4487e04df0719a759.a(exti.c.o)
 .debug_frame   0x00000000000006d4       0x20 /var/folders/28/_tsmhg4172s_wy7vswfkzq9h0000gn/T/arduino_cache_261188/core/core_33a28a35d5be94a4487e04df0719a759.a(exti_f1.c.o)
 .debug_frame   0x00000000000006f4       0x20 /var/folders/28/_tsmhg4172s_wy7vswfkzq9h0000gn/T/arduino_cache_261188/core/core_33a28a35d5be94a4487e04df0719a759.a(flash.c.o)
 .debug_frame   0x0000000000000714       0x7c /var/folders/28/_tsmhg4172s_wy7vswfkzq9h0000gn/T/arduino_cache_261188/core/core_33a28a35d5be94a4487e04df0719a759.a(gpio_f1.c.o)
 .debug_frame   0x0000000000000790       0x9c /var/folders/28/_tsmhg4172s_wy7vswfkzq9h0000gn/T/arduino_cache_261188/core/core_33a28a35d5be94a4487e04df0719a759.a(i2c_f1.c.o)
 .debug_frame   0x000000000000082c       0x5c /var/folders/28/_tsmhg4172s_wy7vswfkzq9h0000gn/T/arduino_cache_261188/core/core_33a28a35d5be94a4487e04df0719a759.a(nvic.c.o)
 .debug_frame   0x0000000000000888       0x70 /var/folders/28/_tsmhg4172s_wy7vswfkzq9h0000gn/T/arduino_cache_261188/core/core_33a28a35d5be94a4487e04df0719a759.a(rcc.c.o)
 .debug_frame   0x00000000000008f8       0xa8 /var/folders/28/_tsmhg4172s_wy7vswfkzq9h0000gn/T/arduino_cache_261188/core/core_33a28a35d5be94a4487e04df0719a759.a(rcc_f1.c.o)
 .debug_frame   0x00000000000009a0       0x68 /var/folders/28/_tsmhg4172s_wy7vswfkzq9h0000gn/T/arduino_cache_261188/core/core_33a28a35d5be94a4487e04df0719a759.a(systick.c.o)
 .debug_frame   0x0000000000000a08      0x1dc /var/folders/28/_tsmhg4172s_wy7vswfkzq9h0000gn/T/arduino_cache_261188/core/core_33a28a35d5be94a4487e04df0719a759.a(timer.c.o)
 .debug_frame   0x0000000000000be4       0xe0 /var/folders/28/_tsmhg4172s_wy7vswfkzq9h0000gn/T/arduino_cache_261188/core/core_33a28a35d5be94a4487e04df0719a759.a(usart_f1.c.o)
 .debug_frame   0x0000000000000cc4       0x28 /var/folders/28/_tsmhg4172s_wy7vswfkzq9h0000gn/T/arduino_cache_261188/core/core_33a28a35d5be94a4487e04df0719a759.a(usart_private.c.o)
 .debug_frame   0x0000000000000cec       0x6c /var/folders/28/_tsmhg4172s_wy7vswfkzq9h0000gn/T/arduino_cache_261188/core/core_33a28a35d5be94a4487e04df0719a759.a(usb.c.o)
 .debug_frame   0x0000000000000d58      0x2b4 /var/folders/28/_tsmhg4172s_wy7vswfkzq9h0000gn/T/arduino_cache_261188/core/core_33a28a35d5be94a4487e04df0719a759.a(usb_cdcacm.c.o)
 .debug_frame   0x000000000000100c       0x20 /var/folders/28/_tsmhg4172s_wy7vswfkzq9h0000gn/T/arduino_cache_261188/core/core_33a28a35d5be94a4487e04df0719a759.a(usb_reg_map.c.o)
 .debug_frame   0x000000000000102c      0x1ac /var/folders/28/_tsmhg4172s_wy7vswfkzq9h0000gn/T/arduino_cache_261188/core/core_33a28a35d5be94a4487e04df0719a759.a(usb_core.c.o)
 .debug_frame   0x00000000000011d8       0x28 /var/folders/28/_tsmhg4172s_wy7vswfkzq9h0000gn/T/arduino_cache_261188/core/core_33a28a35d5be94a4487e04df0719a759.a(usb_init.c.o)
 .debug_frame   0x0000000000001200       0x44 /var/folders/28/_tsmhg4172s_wy7vswfkzq9h0000gn/T/arduino_cache_261188/core/core_33a28a35d5be94a4487e04df0719a759.a(usb_mem.c.o)
 .debug_frame   0x0000000000001244      0x3d0 /var/folders/28/_tsmhg4172s_wy7vswfkzq9h0000gn/T/arduino_cache_261188/core/core_33a28a35d5be94a4487e04df0719a759.a(usb_regs.c.o)
 .debug_frame   0x0000000000001614       0xc8 /var/folders/28/_tsmhg4172s_wy7vswfkzq9h0000gn/T/arduino_cache_261188/core/core_33a28a35d5be94a4487e04df0719a759.a(util.c.o)
 .debug_frame   0x00000000000016dc       0xe4 /var/folders/28/_tsmhg4172s_wy7vswfkzq9h0000gn/T/arduino_cache_261188/core/core_33a28a35d5be94a4487e04df0719a759.a(HardwareSerial.cpp.o)
 .debug_frame   0x00000000000017c0      0x378 /var/folders/28/_tsmhg4172s_wy7vswfkzq9h0000gn/T/arduino_cache_261188/core/core_33a28a35d5be94a4487e04df0719a759.a(Print.cpp.o)
 .debug_frame   0x0000000000001b38       0x20 /var/folders/28/_tsmhg4172s_wy7vswfkzq9h0000gn/T/arduino_cache_261188/core/core_33a28a35d5be94a4487e04df0719a759.a(cxxabi-compat.cpp.o)
 .debug_frame   0x0000000000001b58       0x38 /var/folders/28/_tsmhg4172s_wy7vswfkzq9h0000gn/T/arduino_cache_261188/core/core_33a28a35d5be94a4487e04df0719a759.a(main.cpp.o)
 .debug_frame   0x0000000000001b90       0x2c /var/folders/28/_tsmhg4172s_wy7vswfkzq9h0000gn/T/arduino_cache_261188/core/core_33a28a35d5be94a4487e04df0719a759.a(wirish_digital_f1.cpp.o)
 .debug_frame   0x0000000000001bbc      0x228 /var/folders/28/_tsmhg4172s_wy7vswfkzq9h0000gn/T/arduino_cache_261188/core/core_33a28a35d5be94a4487e04df0719a759.a(usb_serial.cpp.o)
 .debug_frame   0x0000000000001de4       0x30 /var/folders/28/_tsmhg4172s_wy7vswfkzq9h0000gn/T/arduino_cache_261188/core/core_33a28a35d5be94a4487e04df0719a759.a(wirish_digital.cpp.o)
 .debug_frame   0x0000000000001e14       0x3c /var/folders/28/_tsmhg4172s_wy7vswfkzq9h0000gn/T/arduino_cache_261188/core/core_33a28a35d5be94a4487e04df0719a759.a(wirish_time.cpp.o)
 .debug_frame   0x0000000000001e50       0x20 /var/folders/28/_tsmhg4172s_wy7vswfkzq9h0000gn/T/arduino_cache_261188/core/core_33a28a35d5be94a4487e04df0719a759.a(hooks.c.o)
 .debug_frame   0x0000000000001e70       0x70 /var/folders/28/_tsmhg4172s_wy7vswfkzq9h0000gn/T/arduino_cache_261188/core/core_33a28a35d5be94a4487e04df0719a759.a(bkp_f1.c.o)
 .debug_frame   0x0000000000001ee0       0x38 /var/folders/28/_tsmhg4172s_wy7vswfkzq9h0000gn/T/arduino_cache_261188/core/core_33a28a35d5be94a4487e04df0719a759.a(dma.c.o)
 .debug_frame   0x0000000000001f18       0x28 /var/folders/28/_tsmhg4172s_wy7vswfkzq9h0000gn/T/arduino_cache_261188/core/core_33a28a35d5be94a4487e04df0719a759.a(gpio.c.o)
 .debug_frame   0x0000000000001f40       0xe4 /var/folders/28/_tsmhg4172s_wy7vswfkzq9h0000gn/T/arduino_cache_261188/core/core_33a28a35d5be94a4487e04df0719a759.a(i2c.c.o)
 .debug_frame   0x0000000000002024       0x30 /var/folders/28/_tsmhg4172s_wy7vswfkzq9h0000gn/T/arduino_cache_261188/core/core_33a28a35d5be94a4487e04df0719a759.a(iwdg.c.o)
 .debug_frame   0x0000000000002054       0xb4 /var/folders/28/_tsmhg4172s_wy7vswfkzq9h0000gn/T/arduino_cache_261188/core/core_33a28a35d5be94a4487e04df0719a759.a(usart.c.o)
 .debug_frame   0x0000000000002108       0x2c /Users/paulgallagher/Library/Arduino15/packages/arduino/tools/arm-none-eabi-gcc/4.8.3-2014q1/bin/../lib/gcc/arm-none-eabi/4.8.3/armv7-m/libgcc.a(_fixdfdi.o)
 .debug_frame   0x0000000000002134       0x2c /Users/paulgallagher/Library/Arduino15/packages/arduino/tools/arm-none-eabi-gcc/4.8.3-2014q1/bin/../lib/gcc/arm-none-eabi/4.8.3/armv7-m/libgcc.a(_fixunsdfdi.o)
 .debug_frame   0x0000000000002160       0x58 /Users/paulgallagher/Library/Arduino15/packages/arduino/tools/arm-none-eabi-gcc/4.8.3-2014q1/bin/../lib/gcc/arm-none-eabi/4.8.3/armv7-m/libgcc.a(bpabi.o)
 .debug_frame   0x00000000000021b8       0x34 /Users/paulgallagher/Library/Arduino15/packages/arduino/tools/arm-none-eabi-gcc/4.8.3-2014q1/bin/../lib/gcc/arm-none-eabi/4.8.3/armv7-m/libgcc.a(_divdi3.o)
 .debug_frame   0x00000000000021ec       0x34 /Users/paulgallagher/Library/Arduino15/packages/arduino/tools/arm-none-eabi-gcc/4.8.3-2014q1/bin/../lib/gcc/arm-none-eabi/4.8.3/armv7-m/libgcc.a(_udivdi3.o)
 .debug_frame   0x0000000000002220       0x20 /Users/paulgallagher/Library/Arduino15/packages/arduino/tools/arm-none-eabi-gcc/4.8.3-2014q1/bin/../lib/gcc/arm-none-eabi/4.8.3/../../../../arm-none-eabi/lib/armv7-m/libc.a(lib_a-errno.o)
 .debug_frame   0x0000000000002240       0x28 /Users/paulgallagher/Library/Arduino15/packages/arduino/tools/arm-none-eabi-gcc/4.8.3-2014q1/bin/../lib/gcc/arm-none-eabi/4.8.3/../../../../arm-none-eabi/lib/armv7-m/libc.a(lib_a-exit.o)
 .debug_frame   0x0000000000002268       0x2c /Users/paulgallagher/Library/Arduino15/packages/arduino/tools/arm-none-eabi-gcc/4.8.3-2014q1/bin/../lib/gcc/arm-none-eabi/4.8.3/../../../../arm-none-eabi/lib/armv7-m/libc.a(lib_a-init.o)
 .debug_frame   0x0000000000002294       0x2c /Users/paulgallagher/Library/Arduino15/packages/arduino/tools/arm-none-eabi-gcc/4.8.3-2014q1/bin/../lib/gcc/arm-none-eabi/4.8.3/../../../../arm-none-eabi/lib/armv7-m/libc.a(lib_a-memset.o)
 .debug_frame   0x00000000000022c0       0x20 /Users/paulgallagher/Library/Arduino15/packages/arduino/tools/arm-none-eabi-gcc/4.8.3-2014q1/bin/../lib/gcc/arm-none-eabi/4.8.3/../../../../arm-none-eabi/lib/armv7-m/libc.a(lib_a-strlen.o)
 .debug_frame   0x00000000000022e0       0x48 /Users/paulgallagher/Library/Arduino15/packages/arduino/tools/arm-none-eabi-gcc/4.8.3-2014q1/bin/../lib/gcc/arm-none-eabi/4.8.3/../../../../arm-none-eabi/lib/armv7-m/libc.a(lib_a-__call_atexit.o)
 .debug_frame   0x0000000000002328       0x20 /Users/paulgallagher/Library/Arduino15/packages/arduino/tools/arm-none-eabi-gcc/4.8.3-2014q1/bin/../lib/gcc/arm-none-eabi/4.8.3/../../../../arm-none-eabi/lib/armv7-m/libc.a(lib_a-atexit.o)
 .debug_frame   0x0000000000002348       0x2c /Users/paulgallagher/Library/Arduino15/packages/arduino/tools/arm-none-eabi-gcc/4.8.3-2014q1/bin/../lib/gcc/arm-none-eabi/4.8.3/../../../../arm-none-eabi/lib/armv7-m/libc.a(lib_a-fini.o)
 .debug_frame   0x0000000000002374       0x30 /Users/paulgallagher/Library/Arduino15/packages/arduino/tools/arm-none-eabi-gcc/4.8.3-2014q1/bin/../lib/gcc/arm-none-eabi/4.8.3/../../../../arm-none-eabi/lib/armv7-m/libc.a(lib_a-__atexit.o)

.debug_str      0x0000000000000000     0x7bfa
 *(.debug_str)
 .debug_str     0x0000000000000000      0x30e /var/folders/28/_tsmhg4172s_wy7vswfkzq9h0000gn/T/arduino_build_279421/sketch/DebugWithStlink.ino.cpp.o
                                        0x38e (size before relaxing)
 .debug_str     0x000000000000030e      0x1ce /var/folders/28/_tsmhg4172s_wy7vswfkzq9h0000gn/T/arduino_build_279421/core/wirish/start_c.c.o
                                        0x20c (size before relaxing)
 .debug_str     0x00000000000004dc      0x1e7 /var/folders/28/_tsmhg4172s_wy7vswfkzq9h0000gn/T/arduino_build_279421/core/wirish/syscalls.c.o
                                        0x38e (size before relaxing)
 .debug_str     0x00000000000006c3      0xac1 /var/folders/28/_tsmhg4172s_wy7vswfkzq9h0000gn/T/arduino_build_279421/core/board.cpp.o
                                        0xcee (size before relaxing)
 .debug_str     0x0000000000001184      0x77f /var/folders/28/_tsmhg4172s_wy7vswfkzq9h0000gn/T/arduino_build_279421/core/wirish/boards.cpp.o
                                       0x1143 (size before relaxing)
 .debug_str     0x0000000000001903      0x53c /var/folders/28/_tsmhg4172s_wy7vswfkzq9h0000gn/T/arduino_build_279421/core/wirish/boards_setup.cpp.o
                                       0x126d (size before relaxing)
 .debug_str     0x0000000000001e3f      0x239 /var/folders/28/_tsmhg4172s_wy7vswfkzq9h0000gn/T/arduino_cache_261188/core/core_33a28a35d5be94a4487e04df0719a759.a(adc.c.o)
                                        0xad6 (size before relaxing)
 .debug_str     0x0000000000002078      0x178 /var/folders/28/_tsmhg4172s_wy7vswfkzq9h0000gn/T/arduino_cache_261188/core/core_33a28a35d5be94a4487e04df0719a759.a(adc_f1.c.o)
                                        0xdf1 (size before relaxing)
 .debug_str     0x00000000000021f0      0xae9 /var/folders/28/_tsmhg4172s_wy7vswfkzq9h0000gn/T/arduino_cache_261188/core/core_33a28a35d5be94a4487e04df0719a759.a(dma_f1.c.o)
                                       0x13b3 (size before relaxing)
 .debug_str     0x0000000000002cd9      0x255 /var/folders/28/_tsmhg4172s_wy7vswfkzq9h0000gn/T/arduino_cache_261188/core/core_33a28a35d5be94a4487e04df0719a759.a(exti.c.o)
                                        0x95b (size before relaxing)
 .debug_str     0x0000000000002f2e       0xb2 /var/folders/28/_tsmhg4172s_wy7vswfkzq9h0000gn/T/arduino_cache_261188/core/core_33a28a35d5be94a4487e04df0719a759.a(exti_f1.c.o)
                                        0x2fb (size before relaxing)
 .debug_str     0x0000000000002fe0       0x7f /var/folders/28/_tsmhg4172s_wy7vswfkzq9h0000gn/T/arduino_cache_261188/core/core_33a28a35d5be94a4487e04df0719a759.a(flash.c.o)
                                        0x21a (size before relaxing)
 .debug_str     0x000000000000305f      0x2b9 /var/folders/28/_tsmhg4172s_wy7vswfkzq9h0000gn/T/arduino_cache_261188/core/core_33a28a35d5be94a4487e04df0719a759.a(gpio_f1.c.o)
                                        0x7d2 (size before relaxing)
 .debug_str     0x0000000000003318      0x23e /var/folders/28/_tsmhg4172s_wy7vswfkzq9h0000gn/T/arduino_cache_261188/core/core_33a28a35d5be94a4487e04df0719a759.a(i2c_f1.c.o)
                                        0xd2f (size before relaxing)
 .debug_str     0x0000000000003556       0xee /var/folders/28/_tsmhg4172s_wy7vswfkzq9h0000gn/T/arduino_cache_261188/core/core_33a28a35d5be94a4487e04df0719a759.a(nvic.c.o)
                                        0x723 (size before relaxing)
 .debug_str     0x0000000000003644      0x112 /var/folders/28/_tsmhg4172s_wy7vswfkzq9h0000gn/T/arduino_cache_261188/core/core_33a28a35d5be94a4487e04df0719a759.a(rcc.c.o)
                                        0x56f (size before relaxing)
 .debug_str     0x0000000000003756      0x106 /var/folders/28/_tsmhg4172s_wy7vswfkzq9h0000gn/T/arduino_cache_261188/core/core_33a28a35d5be94a4487e04df0719a759.a(rcc_f1.c.o)
                                        0x829 (size before relaxing)
 .debug_str     0x000000000000385c       0xeb /var/folders/28/_tsmhg4172s_wy7vswfkzq9h0000gn/T/arduino_cache_261188/core/core_33a28a35d5be94a4487e04df0719a759.a(systick.c.o)
                                        0x280 (size before relaxing)
 .debug_str     0x0000000000003947      0x3db /var/folders/28/_tsmhg4172s_wy7vswfkzq9h0000gn/T/arduino_cache_261188/core/core_33a28a35d5be94a4487e04df0719a759.a(timer.c.o)
                                        0xed4 (size before relaxing)
 .debug_str     0x0000000000003d22      0x1ae /var/folders/28/_tsmhg4172s_wy7vswfkzq9h0000gn/T/arduino_cache_261188/core/core_33a28a35d5be94a4487e04df0719a759.a(usart_f1.c.o)
                                        0xae5 (size before relaxing)
 .debug_str     0x0000000000003ed0       0x7b /var/folders/28/_tsmhg4172s_wy7vswfkzq9h0000gn/T/arduino_cache_261188/core/core_33a28a35d5be94a4487e04df0719a759.a(usart_private.c.o)
                                        0x8a5 (size before relaxing)
 .debug_str     0x0000000000003f4b      0x624 /var/folders/28/_tsmhg4172s_wy7vswfkzq9h0000gn/T/arduino_cache_261188/core/core_33a28a35d5be94a4487e04df0719a759.a(usb.c.o)
                                        0xa88 (size before relaxing)
 .debug_str     0x000000000000456f      0x999 /var/folders/28/_tsmhg4172s_wy7vswfkzq9h0000gn/T/arduino_cache_261188/core/core_33a28a35d5be94a4487e04df0719a759.a(usb_cdcacm.c.o)
                                       0x1836 (size before relaxing)
 .debug_str     0x0000000000004f08       0xa8 /var/folders/28/_tsmhg4172s_wy7vswfkzq9h0000gn/T/arduino_cache_261188/core/core_33a28a35d5be94a4487e04df0719a759.a(usb_reg_map.c.o)
                                        0x2a3 (size before relaxing)
 .debug_str     0x0000000000004fb0      0x4a8 /var/folders/28/_tsmhg4172s_wy7vswfkzq9h0000gn/T/arduino_cache_261188/core/core_33a28a35d5be94a4487e04df0719a759.a(usb_core.c.o)
                                        0xadb (size before relaxing)
 .debug_str     0x0000000000005458       0xad /var/folders/28/_tsmhg4172s_wy7vswfkzq9h0000gn/T/arduino_cache_261188/core/core_33a28a35d5be94a4487e04df0719a759.a(usb_init.c.o)
                                        0x53f (size before relaxing)
 .debug_str     0x0000000000005505       0xb1 /var/folders/28/_tsmhg4172s_wy7vswfkzq9h0000gn/T/arduino_cache_261188/core/core_33a28a35d5be94a4487e04df0719a759.a(usb_mem.c.o)
                                        0x1f5 (size before relaxing)
 .debug_str     0x00000000000055b6      0x3f2 /var/folders/28/_tsmhg4172s_wy7vswfkzq9h0000gn/T/arduino_cache_261188/core/core_33a28a35d5be94a4487e04df0719a759.a(usb_regs.c.o)
                                        0x57d (size before relaxing)
 .debug_str     0x00000000000059a8      0x130 /var/folders/28/_tsmhg4172s_wy7vswfkzq9h0000gn/T/arduino_cache_261188/core/core_33a28a35d5be94a4487e04df0719a759.a(util.c.o)
                                        0xa52 (size before relaxing)
 .debug_str     0x0000000000005ad8      0xfc1 /var/folders/28/_tsmhg4172s_wy7vswfkzq9h0000gn/T/arduino_cache_261188/core/core_33a28a35d5be94a4487e04df0719a759.a(HardwareSerial.cpp.o)
                                       0x1bcb (size before relaxing)
 .debug_str     0x0000000000006a99      0x439 /var/folders/28/_tsmhg4172s_wy7vswfkzq9h0000gn/T/arduino_cache_261188/core/core_33a28a35d5be94a4487e04df0719a759.a(Print.cpp.o)
                                        0xf99 (size before relaxing)
 .debug_str     0x0000000000006ed2       0x87 /var/folders/28/_tsmhg4172s_wy7vswfkzq9h0000gn/T/arduino_cache_261188/core/core_33a28a35d5be94a4487e04df0719a759.a(cxxabi-compat.cpp.o)
                                        0x186 (size before relaxing)
 .debug_str     0x0000000000006f59       0x7f /var/folders/28/_tsmhg4172s_wy7vswfkzq9h0000gn/T/arduino_cache_261188/core/core_33a28a35d5be94a4487e04df0719a759.a(main.cpp.o)
                                        0x1af (size before relaxing)
 .debug_str     0x0000000000006fd8       0x8b /var/folders/28/_tsmhg4172s_wy7vswfkzq9h0000gn/T/arduino_cache_261188/core/core_33a28a35d5be94a4487e04df0719a759.a(wirish_digital_f1.cpp.o)
                                        0xc69 (size before relaxing)
 .debug_str     0x0000000000007063      0x45d /var/folders/28/_tsmhg4172s_wy7vswfkzq9h0000gn/T/arduino_cache_261188/core/core_33a28a35d5be94a4487e04df0719a759.a(usb_serial.cpp.o)
                                       0x1d3e (size before relaxing)
 .debug_str     0x00000000000074c0       0xa0 /var/folders/28/_tsmhg4172s_wy7vswfkzq9h0000gn/T/arduino_cache_261188/core/core_33a28a35d5be94a4487e04df0719a759.a(wirish_digital.cpp.o)
                                        0xacf (size before relaxing)
 .debug_str     0x0000000000007560       0xa1 /var/folders/28/_tsmhg4172s_wy7vswfkzq9h0000gn/T/arduino_cache_261188/core/core_33a28a35d5be94a4487e04df0719a759.a(wirish_time.cpp.o)
                                        0x2e4 (size before relaxing)
 .debug_str     0x0000000000007601       0x72 /var/folders/28/_tsmhg4172s_wy7vswfkzq9h0000gn/T/arduino_cache_261188/core/core_33a28a35d5be94a4487e04df0719a759.a(hooks.c.o)
                                        0x13c (size before relaxing)
 .debug_str     0x0000000000007673       0xb6 /var/folders/28/_tsmhg4172s_wy7vswfkzq9h0000gn/T/arduino_cache_261188/core/core_33a28a35d5be94a4487e04df0719a759.a(bkp_f1.c.o)
                                        0x49a (size before relaxing)
 .debug_str     0x0000000000007729      0x149 /var/folders/28/_tsmhg4172s_wy7vswfkzq9h0000gn/T/arduino_cache_261188/core/core_33a28a35d5be94a4487e04df0719a759.a(dma.c.o)
                                        0xa59 (size before relaxing)
 .debug_str     0x0000000000007872       0x72 /var/folders/28/_tsmhg4172s_wy7vswfkzq9h0000gn/T/arduino_cache_261188/core/core_33a28a35d5be94a4487e04df0719a759.a(gpio.c.o)
                                        0x45e (size before relaxing)
 .debug_str     0x00000000000078e4      0x1d3 /var/folders/28/_tsmhg4172s_wy7vswfkzq9h0000gn/T/arduino_cache_261188/core/core_33a28a35d5be94a4487e04df0719a759.a(i2c.c.o)
                                        0xe8c (size before relaxing)
 .debug_str     0x0000000000007ab7       0x89 /var/folders/28/_tsmhg4172s_wy7vswfkzq9h0000gn/T/arduino_cache_261188/core/core_33a28a35d5be94a4487e04df0719a759.a(iwdg.c.o)
                                        0x277 (size before relaxing)
 .debug_str     0x0000000000007b40       0xba /var/folders/28/_tsmhg4172s_wy7vswfkzq9h0000gn/T/arduino_cache_261188/core/core_33a28a35d5be94a4487e04df0719a759.a(usart.c.o)
                                        0x9e6 (size before relaxing)

.debug_loc      0x0000000000000000     0x8d02
 *(.debug_loc)
 .debug_loc     0x0000000000000000       0xa5 /var/folders/28/_tsmhg4172s_wy7vswfkzq9h0000gn/T/arduino_build_279421/core/wirish/start_c.c.o
 .debug_loc     0x00000000000000a5      0x38a /var/folders/28/_tsmhg4172s_wy7vswfkzq9h0000gn/T/arduino_build_279421/core/wirish/syscalls.c.o
 .debug_loc     0x000000000000042f      0x246 /var/folders/28/_tsmhg4172s_wy7vswfkzq9h0000gn/T/arduino_build_279421/core/wirish/boards.cpp.o
 .debug_loc     0x0000000000000675       0x13 /var/folders/28/_tsmhg4172s_wy7vswfkzq9h0000gn/T/arduino_build_279421/core/wirish/boards_setup.cpp.o
 .debug_loc     0x0000000000000688      0x145 /var/folders/28/_tsmhg4172s_wy7vswfkzq9h0000gn/T/arduino_cache_261188/core/core_33a28a35d5be94a4487e04df0719a759.a(adc.c.o)
 .debug_loc     0x00000000000007cd      0x2c7 /var/folders/28/_tsmhg4172s_wy7vswfkzq9h0000gn/T/arduino_cache_261188/core/core_33a28a35d5be94a4487e04df0719a759.a(adc_f1.c.o)
 .debug_loc     0x0000000000000a94      0xe86 /var/folders/28/_tsmhg4172s_wy7vswfkzq9h0000gn/T/arduino_cache_261188/core/core_33a28a35d5be94a4487e04df0719a759.a(dma_f1.c.o)
 .debug_loc     0x000000000000191a      0x6c2 /var/folders/28/_tsmhg4172s_wy7vswfkzq9h0000gn/T/arduino_cache_261188/core/core_33a28a35d5be94a4487e04df0719a759.a(exti.c.o)
 .debug_loc     0x0000000000001fdc       0x42 /var/folders/28/_tsmhg4172s_wy7vswfkzq9h0000gn/T/arduino_cache_261188/core/core_33a28a35d5be94a4487e04df0719a759.a(exti_f1.c.o)
 .debug_loc     0x000000000000201e       0x3f /var/folders/28/_tsmhg4172s_wy7vswfkzq9h0000gn/T/arduino_cache_261188/core/core_33a28a35d5be94a4487e04df0719a759.a(flash.c.o)
 .debug_loc     0x000000000000205d      0x267 /var/folders/28/_tsmhg4172s_wy7vswfkzq9h0000gn/T/arduino_cache_261188/core/core_33a28a35d5be94a4487e04df0719a759.a(gpio_f1.c.o)
 .debug_loc     0x00000000000022c4      0x1c4 /var/folders/28/_tsmhg4172s_wy7vswfkzq9h0000gn/T/arduino_cache_261188/core/core_33a28a35d5be94a4487e04df0719a759.a(i2c_f1.c.o)
 .debug_loc     0x0000000000002488      0x121 /var/folders/28/_tsmhg4172s_wy7vswfkzq9h0000gn/T/arduino_cache_261188/core/core_33a28a35d5be94a4487e04df0719a759.a(nvic.c.o)
 .debug_loc     0x00000000000025a9      0x131 /var/folders/28/_tsmhg4172s_wy7vswfkzq9h0000gn/T/arduino_cache_261188/core/core_33a28a35d5be94a4487e04df0719a759.a(rcc.c.o)
 .debug_loc     0x00000000000026da      0x34b /var/folders/28/_tsmhg4172s_wy7vswfkzq9h0000gn/T/arduino_cache_261188/core/core_33a28a35d5be94a4487e04df0719a759.a(rcc_f1.c.o)
 .debug_loc     0x0000000000002a25      0xd02 /var/folders/28/_tsmhg4172s_wy7vswfkzq9h0000gn/T/arduino_cache_261188/core/core_33a28a35d5be94a4487e04df0719a759.a(timer.c.o)
 .debug_loc     0x0000000000003727      0x2dc /var/folders/28/_tsmhg4172s_wy7vswfkzq9h0000gn/T/arduino_cache_261188/core/core_33a28a35d5be94a4487e04df0719a759.a(usart_f1.c.o)
 .debug_loc     0x0000000000003a03       0x3f /var/folders/28/_tsmhg4172s_wy7vswfkzq9h0000gn/T/arduino_cache_261188/core/core_33a28a35d5be94a4487e04df0719a759.a(usart_private.c.o)
 .debug_loc     0x0000000000003a42      0x4fc /var/folders/28/_tsmhg4172s_wy7vswfkzq9h0000gn/T/arduino_cache_261188/core/core_33a28a35d5be94a4487e04df0719a759.a(usb.c.o)
 .debug_loc     0x0000000000003f3e      0xaab /var/folders/28/_tsmhg4172s_wy7vswfkzq9h0000gn/T/arduino_cache_261188/core/core_33a28a35d5be94a4487e04df0719a759.a(usb_cdcacm.c.o)
 .debug_loc     0x00000000000049e9       0xf5 /var/folders/28/_tsmhg4172s_wy7vswfkzq9h0000gn/T/arduino_cache_261188/core/core_33a28a35d5be94a4487e04df0719a759.a(usb_reg_map.c.o)
 .debug_loc     0x0000000000004ade      0x7a1 /var/folders/28/_tsmhg4172s_wy7vswfkzq9h0000gn/T/arduino_cache_261188/core/core_33a28a35d5be94a4487e04df0719a759.a(usb_core.c.o)
 .debug_loc     0x000000000000527f      0x293 /var/folders/28/_tsmhg4172s_wy7vswfkzq9h0000gn/T/arduino_cache_261188/core/core_33a28a35d5be94a4487e04df0719a759.a(usb_mem.c.o)
 .debug_loc     0x0000000000005512      0xbab /var/folders/28/_tsmhg4172s_wy7vswfkzq9h0000gn/T/arduino_cache_261188/core/core_33a28a35d5be94a4487e04df0719a759.a(usb_regs.c.o)
 .debug_loc     0x00000000000060bd      0x27f /var/folders/28/_tsmhg4172s_wy7vswfkzq9h0000gn/T/arduino_cache_261188/core/core_33a28a35d5be94a4487e04df0719a759.a(util.c.o)
 .debug_loc     0x000000000000633c      0x3dc /var/folders/28/_tsmhg4172s_wy7vswfkzq9h0000gn/T/arduino_cache_261188/core/core_33a28a35d5be94a4487e04df0719a759.a(HardwareSerial.cpp.o)
 .debug_loc     0x0000000000006718     0x10a7 /var/folders/28/_tsmhg4172s_wy7vswfkzq9h0000gn/T/arduino_cache_261188/core/core_33a28a35d5be94a4487e04df0719a759.a(Print.cpp.o)
 .debug_loc     0x00000000000077bf      0x169 /var/folders/28/_tsmhg4172s_wy7vswfkzq9h0000gn/T/arduino_cache_261188/core/core_33a28a35d5be94a4487e04df0719a759.a(wirish_digital_f1.cpp.o)
 .debug_loc     0x0000000000007928      0x580 /var/folders/28/_tsmhg4172s_wy7vswfkzq9h0000gn/T/arduino_cache_261188/core/core_33a28a35d5be94a4487e04df0719a759.a(usb_serial.cpp.o)
 .debug_loc     0x0000000000007ea8       0x7c /var/folders/28/_tsmhg4172s_wy7vswfkzq9h0000gn/T/arduino_cache_261188/core/core_33a28a35d5be94a4487e04df0719a759.a(wirish_digital.cpp.o)
 .debug_loc     0x0000000000007f24       0x78 /var/folders/28/_tsmhg4172s_wy7vswfkzq9h0000gn/T/arduino_cache_261188/core/core_33a28a35d5be94a4487e04df0719a759.a(wirish_time.cpp.o)
 .debug_loc     0x0000000000007f9c       0xc8 /var/folders/28/_tsmhg4172s_wy7vswfkzq9h0000gn/T/arduino_cache_261188/core/core_33a28a35d5be94a4487e04df0719a759.a(bkp_f1.c.o)
 .debug_loc     0x0000000000008064       0x42 /var/folders/28/_tsmhg4172s_wy7vswfkzq9h0000gn/T/arduino_cache_261188/core/core_33a28a35d5be94a4487e04df0719a759.a(dma.c.o)
 .debug_loc     0x00000000000080a6       0x2c /var/folders/28/_tsmhg4172s_wy7vswfkzq9h0000gn/T/arduino_cache_261188/core/core_33a28a35d5be94a4487e04df0719a759.a(gpio.c.o)
 .debug_loc     0x00000000000080d2      0x881 /var/folders/28/_tsmhg4172s_wy7vswfkzq9h0000gn/T/arduino_cache_261188/core/core_33a28a35d5be94a4487e04df0719a759.a(i2c.c.o)
 .debug_loc     0x0000000000008953      0x3af /var/folders/28/_tsmhg4172s_wy7vswfkzq9h0000gn/T/arduino_cache_261188/core/core_33a28a35d5be94a4487e04df0719a759.a(usart.c.o)

.debug_macinfo
 *(.debug_macinfo)

.debug_weaknames
 *(.debug_weaknames)

.debug_funcnames
 *(.debug_funcnames)

.debug_typenames
 *(.debug_typenames)

.debug_varnames
 *(.debug_varnames)

.note.gnu.arm.ident
 *(.note.gnu.arm.ident)

.ARM.attributes
                0x0000000000000000       0x29
 *(.ARM.attributes)
 .ARM.attributes
                0x0000000000000000       0x1d /Users/paulgallagher/Library/Arduino15/packages/arduino/tools/arm-none-eabi-gcc/4.8.3-2014q1/bin/../lib/gcc/arm-none-eabi/4.8.3/armv7-m/crti.o
 .ARM.attributes
                0x000000000000001d       0x2d /Users/paulgallagher/Library/Arduino15/packages/arduino/tools/arm-none-eabi-gcc/4.8.3-2014q1/bin/../lib/gcc/arm-none-eabi/4.8.3/armv7-m/crtbegin.o
 .ARM.attributes
                0x000000000000004a       0x1b /Users/paulgallagher/Library/Arduino15/packages/arduino/tools/arm-none-eabi-gcc/4.8.3-2014q1/bin/../lib/gcc/arm-none-eabi/4.8.3/../../../../arm-none-eabi/lib/armv7-m/crt0.o
 .ARM.attributes
                0x0000000000000065       0x33 /var/folders/28/_tsmhg4172s_wy7vswfkzq9h0000gn/T/arduino_build_279421/sketch/DebugWithStlink.ino.cpp.o
 .ARM.attributes
                0x0000000000000098       0x1b /var/folders/28/_tsmhg4172s_wy7vswfkzq9h0000gn/T/arduino_build_279421/core/wirish/start.S.o
 .ARM.attributes
                0x00000000000000b3       0x33 /var/folders/28/_tsmhg4172s_wy7vswfkzq9h0000gn/T/arduino_build_279421/core/wirish/start_c.c.o
 .ARM.attributes
                0x00000000000000e6       0x33 /var/folders/28/_tsmhg4172s_wy7vswfkzq9h0000gn/T/arduino_build_279421/core/wirish/syscalls.c.o
 .ARM.attributes
                0x0000000000000119       0x33 /var/folders/28/_tsmhg4172s_wy7vswfkzq9h0000gn/T/arduino_build_279421/core/board.cpp.o
 .ARM.attributes
                0x000000000000014c       0x33 /var/folders/28/_tsmhg4172s_wy7vswfkzq9h0000gn/T/arduino_build_279421/core/wirish/boards.cpp.o
 .ARM.attributes
                0x000000000000017f       0x33 /var/folders/28/_tsmhg4172s_wy7vswfkzq9h0000gn/T/arduino_build_279421/core/wirish/boards_setup.cpp.o
 .ARM.attributes
                0x00000000000001b2       0x1b /var/folders/28/_tsmhg4172s_wy7vswfkzq9h0000gn/T/arduino_cache_261188/core/core_33a28a35d5be94a4487e04df0719a759.a(exc.S.o)
 .ARM.attributes
                0x00000000000001cd       0x1b /var/folders/28/_tsmhg4172s_wy7vswfkzq9h0000gn/T/arduino_cache_261188/core/core_33a28a35d5be94a4487e04df0719a759.a(isrs.S.o)
 .ARM.attributes
                0x00000000000001e8       0x1b /var/folders/28/_tsmhg4172s_wy7vswfkzq9h0000gn/T/arduino_cache_261188/core/core_33a28a35d5be94a4487e04df0719a759.a(vector_table.S.o)
 .ARM.attributes
                0x0000000000000203       0x33 /var/folders/28/_tsmhg4172s_wy7vswfkzq9h0000gn/T/arduino_cache_261188/core/core_33a28a35d5be94a4487e04df0719a759.a(adc.c.o)
 .ARM.attributes
                0x0000000000000236       0x33 /var/folders/28/_tsmhg4172s_wy7vswfkzq9h0000gn/T/arduino_cache_261188/core/core_33a28a35d5be94a4487e04df0719a759.a(adc_f1.c.o)
 .ARM.attributes
                0x0000000000000269       0x33 /var/folders/28/_tsmhg4172s_wy7vswfkzq9h0000gn/T/arduino_cache_261188/core/core_33a28a35d5be94a4487e04df0719a759.a(dma_f1.c.o)
 .ARM.attributes
                0x000000000000029c       0x33 /var/folders/28/_tsmhg4172s_wy7vswfkzq9h0000gn/T/arduino_cache_261188/core/core_33a28a35d5be94a4487e04df0719a759.a(exti.c.o)
 .ARM.attributes
                0x00000000000002cf       0x33 /var/folders/28/_tsmhg4172s_wy7vswfkzq9h0000gn/T/arduino_cache_261188/core/core_33a28a35d5be94a4487e04df0719a759.a(exti_f1.c.o)
 .ARM.attributes
                0x0000000000000302       0x33 /var/folders/28/_tsmhg4172s_wy7vswfkzq9h0000gn/T/arduino_cache_261188/core/core_33a28a35d5be94a4487e04df0719a759.a(flash.c.o)
 .ARM.attributes
                0x0000000000000335       0x33 /var/folders/28/_tsmhg4172s_wy7vswfkzq9h0000gn/T/arduino_cache_261188/core/core_33a28a35d5be94a4487e04df0719a759.a(gpio_f1.c.o)
 .ARM.attributes
                0x0000000000000368       0x33 /var/folders/28/_tsmhg4172s_wy7vswfkzq9h0000gn/T/arduino_cache_261188/core/core_33a28a35d5be94a4487e04df0719a759.a(i2c_f1.c.o)
 .ARM.attributes
                0x000000000000039b       0x33 /var/folders/28/_tsmhg4172s_wy7vswfkzq9h0000gn/T/arduino_cache_261188/core/core_33a28a35d5be94a4487e04df0719a759.a(nvic.c.o)
 .ARM.attributes
                0x00000000000003ce       0x33 /var/folders/28/_tsmhg4172s_wy7vswfkzq9h0000gn/T/arduino_cache_261188/core/core_33a28a35d5be94a4487e04df0719a759.a(rcc.c.o)
 .ARM.attributes
                0x0000000000000401       0x33 /var/folders/28/_tsmhg4172s_wy7vswfkzq9h0000gn/T/arduino_cache_261188/core/core_33a28a35d5be94a4487e04df0719a759.a(rcc_f1.c.o)
 .ARM.attributes
                0x0000000000000434       0x33 /var/folders/28/_tsmhg4172s_wy7vswfkzq9h0000gn/T/arduino_cache_261188/core/core_33a28a35d5be94a4487e04df0719a759.a(systick.c.o)
 .ARM.attributes
                0x0000000000000467       0x33 /var/folders/28/_tsmhg4172s_wy7vswfkzq9h0000gn/T/arduino_cache_261188/core/core_33a28a35d5be94a4487e04df0719a759.a(timer.c.o)
 .ARM.attributes
                0x000000000000049a       0x33 /var/folders/28/_tsmhg4172s_wy7vswfkzq9h0000gn/T/arduino_cache_261188/core/core_33a28a35d5be94a4487e04df0719a759.a(usart_f1.c.o)
 .ARM.attributes
                0x00000000000004cd       0x33 /var/folders/28/_tsmhg4172s_wy7vswfkzq9h0000gn/T/arduino_cache_261188/core/core_33a28a35d5be94a4487e04df0719a759.a(usart_private.c.o)
 .ARM.attributes
                0x0000000000000500       0x33 /var/folders/28/_tsmhg4172s_wy7vswfkzq9h0000gn/T/arduino_cache_261188/core/core_33a28a35d5be94a4487e04df0719a759.a(usb.c.o)
 .ARM.attributes
                0x0000000000000533       0x33 /var/folders/28/_tsmhg4172s_wy7vswfkzq9h0000gn/T/arduino_cache_261188/core/core_33a28a35d5be94a4487e04df0719a759.a(usb_cdcacm.c.o)
 .ARM.attributes
                0x0000000000000566       0x33 /var/folders/28/_tsmhg4172s_wy7vswfkzq9h0000gn/T/arduino_cache_261188/core/core_33a28a35d5be94a4487e04df0719a759.a(usb_reg_map.c.o)
 .ARM.attributes
                0x0000000000000599       0x33 /var/folders/28/_tsmhg4172s_wy7vswfkzq9h0000gn/T/arduino_cache_261188/core/core_33a28a35d5be94a4487e04df0719a759.a(usb_core.c.o)
 .ARM.attributes
                0x00000000000005cc       0x33 /var/folders/28/_tsmhg4172s_wy7vswfkzq9h0000gn/T/arduino_cache_261188/core/core_33a28a35d5be94a4487e04df0719a759.a(usb_init.c.o)
 .ARM.attributes
                0x00000000000005ff       0x33 /var/folders/28/_tsmhg4172s_wy7vswfkzq9h0000gn/T/arduino_cache_261188/core/core_33a28a35d5be94a4487e04df0719a759.a(usb_mem.c.o)
 .ARM.attributes
                0x0000000000000632       0x33 /var/folders/28/_tsmhg4172s_wy7vswfkzq9h0000gn/T/arduino_cache_261188/core/core_33a28a35d5be94a4487e04df0719a759.a(usb_regs.c.o)
 .ARM.attributes
                0x0000000000000665       0x33 /var/folders/28/_tsmhg4172s_wy7vswfkzq9h0000gn/T/arduino_cache_261188/core/core_33a28a35d5be94a4487e04df0719a759.a(util.c.o)
 .ARM.attributes
                0x0000000000000698       0x33 /var/folders/28/_tsmhg4172s_wy7vswfkzq9h0000gn/T/arduino_cache_261188/core/core_33a28a35d5be94a4487e04df0719a759.a(HardwareSerial.cpp.o)
 .ARM.attributes
                0x00000000000006cb       0x33 /var/folders/28/_tsmhg4172s_wy7vswfkzq9h0000gn/T/arduino_cache_261188/core/core_33a28a35d5be94a4487e04df0719a759.a(Print.cpp.o)
 .ARM.attributes
                0x00000000000006fe       0x33 /var/folders/28/_tsmhg4172s_wy7vswfkzq9h0000gn/T/arduino_cache_261188/core/core_33a28a35d5be94a4487e04df0719a759.a(cxxabi-compat.cpp.o)
 .ARM.attributes
                0x0000000000000731       0x33 /var/folders/28/_tsmhg4172s_wy7vswfkzq9h0000gn/T/arduino_cache_261188/core/core_33a28a35d5be94a4487e04df0719a759.a(main.cpp.o)
 .ARM.attributes
                0x0000000000000764       0x33 /var/folders/28/_tsmhg4172s_wy7vswfkzq9h0000gn/T/arduino_cache_261188/core/core_33a28a35d5be94a4487e04df0719a759.a(wirish_digital_f1.cpp.o)
 .ARM.attributes
                0x0000000000000797       0x33 /var/folders/28/_tsmhg4172s_wy7vswfkzq9h0000gn/T/arduino_cache_261188/core/core_33a28a35d5be94a4487e04df0719a759.a(usb_serial.cpp.o)
 .ARM.attributes
                0x00000000000007ca       0x33 /var/folders/28/_tsmhg4172s_wy7vswfkzq9h0000gn/T/arduino_cache_261188/core/core_33a28a35d5be94a4487e04df0719a759.a(wirish_digital.cpp.o)
 .ARM.attributes
                0x00000000000007fd       0x33 /var/folders/28/_tsmhg4172s_wy7vswfkzq9h0000gn/T/arduino_cache_261188/core/core_33a28a35d5be94a4487e04df0719a759.a(wirish_time.cpp.o)
 .ARM.attributes
                0x0000000000000830       0x33 /var/folders/28/_tsmhg4172s_wy7vswfkzq9h0000gn/T/arduino_cache_261188/core/core_33a28a35d5be94a4487e04df0719a759.a(hooks.c.o)
 .ARM.attributes
                0x0000000000000863       0x33 /var/folders/28/_tsmhg4172s_wy7vswfkzq9h0000gn/T/arduino_cache_261188/core/core_33a28a35d5be94a4487e04df0719a759.a(bkp_f1.c.o)
 .ARM.attributes
                0x0000000000000896       0x33 /var/folders/28/_tsmhg4172s_wy7vswfkzq9h0000gn/T/arduino_cache_261188/core/core_33a28a35d5be94a4487e04df0719a759.a(dma.c.o)
 .ARM.attributes
                0x00000000000008c9       0x33 /var/folders/28/_tsmhg4172s_wy7vswfkzq9h0000gn/T/arduino_cache_261188/core/core_33a28a35d5be94a4487e04df0719a759.a(gpio.c.o)
 .ARM.attributes
                0x00000000000008fc       0x33 /var/folders/28/_tsmhg4172s_wy7vswfkzq9h0000gn/T/arduino_cache_261188/core/core_33a28a35d5be94a4487e04df0719a759.a(i2c.c.o)
 .ARM.attributes
                0x000000000000092f       0x33 /var/folders/28/_tsmhg4172s_wy7vswfkzq9h0000gn/T/arduino_cache_261188/core/core_33a28a35d5be94a4487e04df0719a759.a(iwdg.c.o)
 .ARM.attributes
                0x0000000000000962       0x33 /var/folders/28/_tsmhg4172s_wy7vswfkzq9h0000gn/T/arduino_cache_261188/core/core_33a28a35d5be94a4487e04df0719a759.a(usart.c.o)
 .ARM.attributes
                0x0000000000000995       0x1d /Users/paulgallagher/Library/Arduino15/packages/arduino/tools/arm-none-eabi-gcc/4.8.3-2014q1/bin/../lib/gcc/arm-none-eabi/4.8.3/armv7-m/libgcc.a(_arm_addsubdf3.o)
 .ARM.attributes
                0x00000000000009b2       0x1d /Users/paulgallagher/Library/Arduino15/packages/arduino/tools/arm-none-eabi-gcc/4.8.3-2014q1/bin/../lib/gcc/arm-none-eabi/4.8.3/armv7-m/libgcc.a(_arm_muldivdf3.o)
 .ARM.attributes
                0x00000000000009cf       0x1d /Users/paulgallagher/Library/Arduino15/packages/arduino/tools/arm-none-eabi-gcc/4.8.3-2014q1/bin/../lib/gcc/arm-none-eabi/4.8.3/armv7-m/libgcc.a(_arm_cmpdf2.o)
 .ARM.attributes
                0x00000000000009ec       0x1d /Users/paulgallagher/Library/Arduino15/packages/arduino/tools/arm-none-eabi-gcc/4.8.3-2014q1/bin/../lib/gcc/arm-none-eabi/4.8.3/armv7-m/libgcc.a(_arm_fixdfsi.o)
 .ARM.attributes
                0x0000000000000a09       0x1d /Users/paulgallagher/Library/Arduino15/packages/arduino/tools/arm-none-eabi-gcc/4.8.3-2014q1/bin/../lib/gcc/arm-none-eabi/4.8.3/armv7-m/libgcc.a(_aeabi_uldivmod.o)
 .ARM.attributes
                0x0000000000000a26       0x2d /Users/paulgallagher/Library/Arduino15/packages/arduino/tools/arm-none-eabi-gcc/4.8.3-2014q1/bin/../lib/gcc/arm-none-eabi/4.8.3/armv7-m/libgcc.a(_fixdfdi.o)
 .ARM.attributes
                0x0000000000000a53       0x2d /Users/paulgallagher/Library/Arduino15/packages/arduino/tools/arm-none-eabi-gcc/4.8.3-2014q1/bin/../lib/gcc/arm-none-eabi/4.8.3/armv7-m/libgcc.a(_fixunsdfdi.o)
 .ARM.attributes
                0x0000000000000a80       0x2d /Users/paulgallagher/Library/Arduino15/packages/arduino/tools/arm-none-eabi-gcc/4.8.3-2014q1/bin/../lib/gcc/arm-none-eabi/4.8.3/armv7-m/libgcc.a(bpabi.o)
 .ARM.attributes
                0x0000000000000aad       0x1d /Users/paulgallagher/Library/Arduino15/packages/arduino/tools/arm-none-eabi-gcc/4.8.3-2014q1/bin/../lib/gcc/arm-none-eabi/4.8.3/armv7-m/libgcc.a(_dvmd_tls.o)
 .ARM.attributes
                0x0000000000000aca       0x1d /Users/paulgallagher/Library/Arduino15/packages/arduino/tools/arm-none-eabi-gcc/4.8.3-2014q1/bin/../lib/gcc/arm-none-eabi/4.8.3/armv7-m/libgcc.a(_arm_fixunsdfsi.o)
 .ARM.attributes
                0x0000000000000ae7       0x2d /Users/paulgallagher/Library/Arduino15/packages/arduino/tools/arm-none-eabi-gcc/4.8.3-2014q1/bin/../lib/gcc/arm-none-eabi/4.8.3/armv7-m/libgcc.a(_divdi3.o)
 .ARM.attributes
                0x0000000000000b14       0x2d /Users/paulgallagher/Library/Arduino15/packages/arduino/tools/arm-none-eabi-gcc/4.8.3-2014q1/bin/../lib/gcc/arm-none-eabi/4.8.3/armv7-m/libgcc.a(_udivdi3.o)
 .ARM.attributes
                0x0000000000000b41       0x2d /Users/paulgallagher/Library/Arduino15/packages/arduino/tools/arm-none-eabi-gcc/4.8.3-2014q1/bin/../lib/gcc/arm-none-eabi/4.8.3/../../../../arm-none-eabi/lib/armv7-m/libc.a(lib_a-errno.o)
 .ARM.attributes
                0x0000000000000b6e       0x2d /Users/paulgallagher/Library/Arduino15/packages/arduino/tools/arm-none-eabi-gcc/4.8.3-2014q1/bin/../lib/gcc/arm-none-eabi/4.8.3/../../../../arm-none-eabi/lib/armv7-m/libc.a(lib_a-exit.o)
 .ARM.attributes
                0x0000000000000b9b       0x2d /Users/paulgallagher/Library/Arduino15/packages/arduino/tools/arm-none-eabi-gcc/4.8.3-2014q1/bin/../lib/gcc/arm-none-eabi/4.8.3/../../../../arm-none-eabi/lib/armv7-m/libc.a(lib_a-impure.o)
 .ARM.attributes
                0x0000000000000bc8       0x2d /Users/paulgallagher/Library/Arduino15/packages/arduino/tools/arm-none-eabi-gcc/4.8.3-2014q1/bin/../lib/gcc/arm-none-eabi/4.8.3/../../../../arm-none-eabi/lib/armv7-m/libc.a(lib_a-init.o)
 .ARM.attributes
                0x0000000000000bf5       0x2d /Users/paulgallagher/Library/Arduino15/packages/arduino/tools/arm-none-eabi-gcc/4.8.3-2014q1/bin/../lib/gcc/arm-none-eabi/4.8.3/../../../../arm-none-eabi/lib/armv7-m/libc.a(lib_a-memset.o)
 .ARM.attributes
                0x0000000000000c22       0x2d /Users/paulgallagher/Library/Arduino15/packages/arduino/tools/arm-none-eabi-gcc/4.8.3-2014q1/bin/../lib/gcc/arm-none-eabi/4.8.3/../../../../arm-none-eabi/lib/armv7-m/libc.a(lib_a-strlen.o)
 .ARM.attributes
                0x0000000000000c4f       0x2d /Users/paulgallagher/Library/Arduino15/packages/arduino/tools/arm-none-eabi-gcc/4.8.3-2014q1/bin/../lib/gcc/arm-none-eabi/4.8.3/../../../../arm-none-eabi/lib/armv7-m/libc.a(lib_a-__call_atexit.o)
 .ARM.attributes
                0x0000000000000c7c       0x2d /Users/paulgallagher/Library/Arduino15/packages/arduino/tools/arm-none-eabi-gcc/4.8.3-2014q1/bin/../lib/gcc/arm-none-eabi/4.8.3/../../../../arm-none-eabi/lib/armv7-m/libc.a(lib_a-atexit.o)
 .ARM.attributes
                0x0000000000000ca9       0x2d /Users/paulgallagher/Library/Arduino15/packages/arduino/tools/arm-none-eabi-gcc/4.8.3-2014q1/bin/../lib/gcc/arm-none-eabi/4.8.3/../../../../arm-none-eabi/lib/armv7-m/libc.a(lib_a-fini.o)
 .ARM.attributes
                0x0000000000000cd6       0x2d /Users/paulgallagher/Library/Arduino15/packages/arduino/tools/arm-none-eabi-gcc/4.8.3-2014q1/bin/../lib/gcc/arm-none-eabi/4.8.3/../../../../arm-none-eabi/lib/armv7-m/libc.a(lib_a-__atexit.o)
 .ARM.attributes
                0x0000000000000d03       0x2d /Users/paulgallagher/Library/Arduino15/packages/arduino/tools/arm-none-eabi-gcc/4.8.3-2014q1/bin/../lib/gcc/arm-none-eabi/4.8.3/armv7-m/crtend.o
 .ARM.attributes
                0x0000000000000d30       0x1d /Users/paulgallagher/Library/Arduino15/packages/arduino/tools/arm-none-eabi-gcc/4.8.3-2014q1/bin/../lib/gcc/arm-none-eabi/4.8.3/armv7-m/crtn.o

/DISCARD/
 *(.note.GNU-stack)
OUTPUT(/var/folders/28/_tsmhg4172s_wy7vswfkzq9h0000gn/T/arduino_build_279421/DebugWithStlink.ino.elf elf32-littlearm)

.debug_ranges   0x0000000000000000     0x1ac0
 .debug_ranges  0x0000000000000000       0x38 /var/folders/28/_tsmhg4172s_wy7vswfkzq9h0000gn/T/arduino_build_279421/sketch/DebugWithStlink.ino.cpp.o
 .debug_ranges  0x0000000000000038       0x10 /var/folders/28/_tsmhg4172s_wy7vswfkzq9h0000gn/T/arduino_build_279421/core/wirish/start_c.c.o
 .debug_ranges  0x0000000000000048       0x78 /var/folders/28/_tsmhg4172s_wy7vswfkzq9h0000gn/T/arduino_build_279421/core/wirish/syscalls.c.o
 .debug_ranges  0x00000000000000c0       0x38 /var/folders/28/_tsmhg4172s_wy7vswfkzq9h0000gn/T/arduino_build_279421/core/board.cpp.o
 .debug_ranges  0x00000000000000f8      0x160 /var/folders/28/_tsmhg4172s_wy7vswfkzq9h0000gn/T/arduino_build_279421/core/wirish/boards.cpp.o
 .debug_ranges  0x0000000000000258       0x48 /var/folders/28/_tsmhg4172s_wy7vswfkzq9h0000gn/T/arduino_build_279421/core/wirish/boards_setup.cpp.o
 .debug_ranges  0x00000000000002a0       0x28 /var/folders/28/_tsmhg4172s_wy7vswfkzq9h0000gn/T/arduino_cache_261188/core/core_33a28a35d5be94a4487e04df0719a759.a(adc.c.o)
 .debug_ranges  0x00000000000002c8       0xb8 /var/folders/28/_tsmhg4172s_wy7vswfkzq9h0000gn/T/arduino_cache_261188/core/core_33a28a35d5be94a4487e04df0719a759.a(adc_f1.c.o)
 .debug_ranges  0x0000000000000380      0x2a0 /var/folders/28/_tsmhg4172s_wy7vswfkzq9h0000gn/T/arduino_cache_261188/core/core_33a28a35d5be94a4487e04df0719a759.a(dma_f1.c.o)
 .debug_ranges  0x0000000000000620      0x150 /var/folders/28/_tsmhg4172s_wy7vswfkzq9h0000gn/T/arduino_cache_261188/core/core_33a28a35d5be94a4487e04df0719a759.a(exti.c.o)
 .debug_ranges  0x0000000000000770       0x10 /var/folders/28/_tsmhg4172s_wy7vswfkzq9h0000gn/T/arduino_cache_261188/core/core_33a28a35d5be94a4487e04df0719a759.a(exti_f1.c.o)
 .debug_ranges  0x0000000000000780       0x10 /var/folders/28/_tsmhg4172s_wy7vswfkzq9h0000gn/T/arduino_cache_261188/core/core_33a28a35d5be94a4487e04df0719a759.a(flash.c.o)
 .debug_ranges  0x0000000000000790       0x30 /var/folders/28/_tsmhg4172s_wy7vswfkzq9h0000gn/T/arduino_cache_261188/core/core_33a28a35d5be94a4487e04df0719a759.a(gpio_f1.c.o)
 .debug_ranges  0x00000000000007c0       0x90 /var/folders/28/_tsmhg4172s_wy7vswfkzq9h0000gn/T/arduino_cache_261188/core/core_33a28a35d5be94a4487e04df0719a759.a(i2c_f1.c.o)
 .debug_ranges  0x0000000000000850       0x40 /var/folders/28/_tsmhg4172s_wy7vswfkzq9h0000gn/T/arduino_cache_261188/core/core_33a28a35d5be94a4487e04df0719a759.a(nvic.c.o)
 .debug_ranges  0x0000000000000890       0x98 /var/folders/28/_tsmhg4172s_wy7vswfkzq9h0000gn/T/arduino_cache_261188/core/core_33a28a35d5be94a4487e04df0719a759.a(rcc.c.o)
 .debug_ranges  0x0000000000000928       0xc8 /var/folders/28/_tsmhg4172s_wy7vswfkzq9h0000gn/T/arduino_cache_261188/core/core_33a28a35d5be94a4487e04df0719a759.a(rcc_f1.c.o)
 .debug_ranges  0x00000000000009f0       0x48 /var/folders/28/_tsmhg4172s_wy7vswfkzq9h0000gn/T/arduino_cache_261188/core/core_33a28a35d5be94a4487e04df0719a759.a(systick.c.o)
 .debug_ranges  0x0000000000000a38      0x150 /var/folders/28/_tsmhg4172s_wy7vswfkzq9h0000gn/T/arduino_cache_261188/core/core_33a28a35d5be94a4487e04df0719a759.a(timer.c.o)
 .debug_ranges  0x0000000000000b88       0x68 /var/folders/28/_tsmhg4172s_wy7vswfkzq9h0000gn/T/arduino_cache_261188/core/core_33a28a35d5be94a4487e04df0719a759.a(usart_f1.c.o)
 .debug_ranges  0x0000000000000bf0       0x10 /var/folders/28/_tsmhg4172s_wy7vswfkzq9h0000gn/T/arduino_cache_261188/core/core_33a28a35d5be94a4487e04df0719a759.a(usart_private.c.o)
 .debug_ranges  0x0000000000000c00       0xa8 /var/folders/28/_tsmhg4172s_wy7vswfkzq9h0000gn/T/arduino_cache_261188/core/core_33a28a35d5be94a4487e04df0719a759.a(usb.c.o)
 .debug_ranges  0x0000000000000ca8      0x230 /var/folders/28/_tsmhg4172s_wy7vswfkzq9h0000gn/T/arduino_cache_261188/core/core_33a28a35d5be94a4487e04df0719a759.a(usb_cdcacm.c.o)
 .debug_ranges  0x0000000000000ed8       0x60 /var/folders/28/_tsmhg4172s_wy7vswfkzq9h0000gn/T/arduino_cache_261188/core/core_33a28a35d5be94a4487e04df0719a759.a(usb_reg_map.c.o)
 .debug_ranges  0x0000000000000f38       0xc0 /var/folders/28/_tsmhg4172s_wy7vswfkzq9h0000gn/T/arduino_cache_261188/core/core_33a28a35d5be94a4487e04df0719a759.a(usb_core.c.o)
 .debug_ranges  0x0000000000000ff8       0x10 /var/folders/28/_tsmhg4172s_wy7vswfkzq9h0000gn/T/arduino_cache_261188/core/core_33a28a35d5be94a4487e04df0719a759.a(usb_init.c.o)
 .debug_ranges  0x0000000000001008       0x18 /var/folders/28/_tsmhg4172s_wy7vswfkzq9h0000gn/T/arduino_cache_261188/core/core_33a28a35d5be94a4487e04df0719a759.a(usb_mem.c.o)
 .debug_ranges  0x0000000000001020      0x290 /var/folders/28/_tsmhg4172s_wy7vswfkzq9h0000gn/T/arduino_cache_261188/core/core_33a28a35d5be94a4487e04df0719a759.a(usb_regs.c.o)
 .debug_ranges  0x00000000000012b0       0x58 /var/folders/28/_tsmhg4172s_wy7vswfkzq9h0000gn/T/arduino_cache_261188/core/core_33a28a35d5be94a4487e04df0719a759.a(util.c.o)
 .debug_ranges  0x0000000000001308       0x88 /var/folders/28/_tsmhg4172s_wy7vswfkzq9h0000gn/T/arduino_cache_261188/core/core_33a28a35d5be94a4487e04df0719a759.a(HardwareSerial.cpp.o)
 .debug_ranges  0x0000000000001390      0x230 /var/folders/28/_tsmhg4172s_wy7vswfkzq9h0000gn/T/arduino_cache_261188/core/core_33a28a35d5be94a4487e04df0719a759.a(Print.cpp.o)
 .debug_ranges  0x00000000000015c0       0x10 /var/folders/28/_tsmhg4172s_wy7vswfkzq9h0000gn/T/arduino_cache_261188/core/core_33a28a35d5be94a4487e04df0719a759.a(cxxabi-compat.cpp.o)
 .debug_ranges  0x00000000000015d0       0x18 /var/folders/28/_tsmhg4172s_wy7vswfkzq9h0000gn/T/arduino_cache_261188/core/core_33a28a35d5be94a4487e04df0719a759.a(main.cpp.o)
 .debug_ranges  0x00000000000015e8       0x38 /var/folders/28/_tsmhg4172s_wy7vswfkzq9h0000gn/T/arduino_cache_261188/core/core_33a28a35d5be94a4487e04df0719a759.a(wirish_digital_f1.cpp.o)
 .debug_ranges  0x0000000000001620      0x120 /var/folders/28/_tsmhg4172s_wy7vswfkzq9h0000gn/T/arduino_cache_261188/core/core_33a28a35d5be94a4487e04df0719a759.a(usb_serial.cpp.o)
 .debug_ranges  0x0000000000001740       0x50 /var/folders/28/_tsmhg4172s_wy7vswfkzq9h0000gn/T/arduino_cache_261188/core/core_33a28a35d5be94a4487e04df0719a759.a(wirish_digital.cpp.o)
 .debug_ranges  0x0000000000001790       0x50 /var/folders/28/_tsmhg4172s_wy7vswfkzq9h0000gn/T/arduino_cache_261188/core/core_33a28a35d5be94a4487e04df0719a759.a(wirish_time.cpp.o)
 .debug_ranges  0x00000000000017e0       0x10 /var/folders/28/_tsmhg4172s_wy7vswfkzq9h0000gn/T/arduino_cache_261188/core/core_33a28a35d5be94a4487e04df0719a759.a(hooks.c.o)
 .debug_ranges  0x00000000000017f0       0x30 /var/folders/28/_tsmhg4172s_wy7vswfkzq9h0000gn/T/arduino_cache_261188/core/core_33a28a35d5be94a4487e04df0719a759.a(bkp_f1.c.o)
 .debug_ranges  0x0000000000001820       0x18 /var/folders/28/_tsmhg4172s_wy7vswfkzq9h0000gn/T/arduino_cache_261188/core/core_33a28a35d5be94a4487e04df0719a759.a(dma.c.o)
 .debug_ranges  0x0000000000001838       0x10 /var/folders/28/_tsmhg4172s_wy7vswfkzq9h0000gn/T/arduino_cache_261188/core/core_33a28a35d5be94a4487e04df0719a759.a(gpio.c.o)
 .debug_ranges  0x0000000000001848      0x190 /var/folders/28/_tsmhg4172s_wy7vswfkzq9h0000gn/T/arduino_cache_261188/core/core_33a28a35d5be94a4487e04df0719a759.a(i2c.c.o)
 .debug_ranges  0x00000000000019d8       0x18 /var/folders/28/_tsmhg4172s_wy7vswfkzq9h0000gn/T/arduino_cache_261188/core/core_33a28a35d5be94a4487e04df0719a759.a(iwdg.c.o)
 .debug_ranges  0x00000000000019f0       0xd0 /var/folders/28/_tsmhg4172s_wy7vswfkzq9h0000gn/T/arduino_cache_261188/core/core_33a28a35d5be94a4487e04df0719a759.a(usart.c.o)

.comment        0x0000000000000000       0x70
 .comment       0x0000000000000000       0x70 /var/folders/28/_tsmhg4172s_wy7vswfkzq9h0000gn/T/arduino_build_279421/sketch/DebugWithStlink.ino.cpp.o
                                         0x71 (size before relaxing)
 .comment       0x0000000000000000       0x71 /var/folders/28/_tsmhg4172s_wy7vswfkzq9h0000gn/T/arduino_build_279421/core/wirish/start_c.c.o
 .comment       0x0000000000000000       0x71 /var/folders/28/_tsmhg4172s_wy7vswfkzq9h0000gn/T/arduino_build_279421/core/wirish/syscalls.c.o
 .comment       0x0000000000000000       0x71 /var/folders/28/_tsmhg4172s_wy7vswfkzq9h0000gn/T/arduino_build_279421/core/board.cpp.o
 .comment       0x0000000000000000       0x71 /var/folders/28/_tsmhg4172s_wy7vswfkzq9h0000gn/T/arduino_build_279421/core/wirish/boards.cpp.o
 .comment       0x0000000000000000       0x71 /var/folders/28/_tsmhg4172s_wy7vswfkzq9h0000gn/T/arduino_build_279421/core/wirish/boards_setup.cpp.o
 .comment       0x0000000000000000       0x71 /var/folders/28/_tsmhg4172s_wy7vswfkzq9h0000gn/T/arduino_cache_261188/core/core_33a28a35d5be94a4487e04df0719a759.a(adc.c.o)
 .comment       0x0000000000000000       0x71 /var/folders/28/_tsmhg4172s_wy7vswfkzq9h0000gn/T/arduino_cache_261188/core/core_33a28a35d5be94a4487e04df0719a759.a(adc_f1.c.o)
 .comment       0x0000000000000000       0x71 /var/folders/28/_tsmhg4172s_wy7vswfkzq9h0000gn/T/arduino_cache_261188/core/core_33a28a35d5be94a4487e04df0719a759.a(dma_f1.c.o)
 .comment       0x0000000000000000       0x71 /var/folders/28/_tsmhg4172s_wy7vswfkzq9h0000gn/T/arduino_cache_261188/core/core_33a28a35d5be94a4487e04df0719a759.a(exti.c.o)
 .comment       0x0000000000000000       0x71 /var/folders/28/_tsmhg4172s_wy7vswfkzq9h0000gn/T/arduino_cache_261188/core/core_33a28a35d5be94a4487e04df0719a759.a(exti_f1.c.o)
 .comment       0x0000000000000000       0x71 /var/folders/28/_tsmhg4172s_wy7vswfkzq9h0000gn/T/arduino_cache_261188/core/core_33a28a35d5be94a4487e04df0719a759.a(flash.c.o)
 .comment       0x0000000000000000       0x71 /var/folders/28/_tsmhg4172s_wy7vswfkzq9h0000gn/T/arduino_cache_261188/core/core_33a28a35d5be94a4487e04df0719a759.a(gpio_f1.c.o)
 .comment       0x0000000000000000       0x71 /var/folders/28/_tsmhg4172s_wy7vswfkzq9h0000gn/T/arduino_cache_261188/core/core_33a28a35d5be94a4487e04df0719a759.a(i2c_f1.c.o)
 .comment       0x0000000000000000       0x71 /var/folders/28/_tsmhg4172s_wy7vswfkzq9h0000gn/T/arduino_cache_261188/core/core_33a28a35d5be94a4487e04df0719a759.a(nvic.c.o)
 .comment       0x0000000000000000       0x71 /var/folders/28/_tsmhg4172s_wy7vswfkzq9h0000gn/T/arduino_cache_261188/core/core_33a28a35d5be94a4487e04df0719a759.a(rcc.c.o)
 .comment       0x0000000000000000       0x71 /var/folders/28/_tsmhg4172s_wy7vswfkzq9h0000gn/T/arduino_cache_261188/core/core_33a28a35d5be94a4487e04df0719a759.a(rcc_f1.c.o)
 .comment       0x0000000000000000       0x71 /var/folders/28/_tsmhg4172s_wy7vswfkzq9h0000gn/T/arduino_cache_261188/core/core_33a28a35d5be94a4487e04df0719a759.a(systick.c.o)
 .comment       0x0000000000000000       0x71 /var/folders/28/_tsmhg4172s_wy7vswfkzq9h0000gn/T/arduino_cache_261188/core/core_33a28a35d5be94a4487e04df0719a759.a(timer.c.o)
 .comment       0x0000000000000000       0x71 /var/folders/28/_tsmhg4172s_wy7vswfkzq9h0000gn/T/arduino_cache_261188/core/core_33a28a35d5be94a4487e04df0719a759.a(usart_f1.c.o)
 .comment       0x0000000000000000       0x71 /var/folders/28/_tsmhg4172s_wy7vswfkzq9h0000gn/T/arduino_cache_261188/core/core_33a28a35d5be94a4487e04df0719a759.a(usart_private.c.o)
 .comment       0x0000000000000000       0x71 /var/folders/28/_tsmhg4172s_wy7vswfkzq9h0000gn/T/arduino_cache_261188/core/core_33a28a35d5be94a4487e04df0719a759.a(usb.c.o)
 .comment       0x0000000000000000       0x71 /var/folders/28/_tsmhg4172s_wy7vswfkzq9h0000gn/T/arduino_cache_261188/core/core_33a28a35d5be94a4487e04df0719a759.a(usb_cdcacm.c.o)
 .comment       0x0000000000000000       0x71 /var/folders/28/_tsmhg4172s_wy7vswfkzq9h0000gn/T/arduino_cache_261188/core/core_33a28a35d5be94a4487e04df0719a759.a(usb_reg_map.c.o)
 .comment       0x0000000000000000       0x71 /var/folders/28/_tsmhg4172s_wy7vswfkzq9h0000gn/T/arduino_cache_261188/core/core_33a28a35d5be94a4487e04df0719a759.a(usb_core.c.o)
 .comment       0x0000000000000000       0x71 /var/folders/28/_tsmhg4172s_wy7vswfkzq9h0000gn/T/arduino_cache_261188/core/core_33a28a35d5be94a4487e04df0719a759.a(usb_init.c.o)
 .comment       0x0000000000000000       0x71 /var/folders/28/_tsmhg4172s_wy7vswfkzq9h0000gn/T/arduino_cache_261188/core/core_33a28a35d5be94a4487e04df0719a759.a(usb_mem.c.o)
 .comment       0x0000000000000000       0x71 /var/folders/28/_tsmhg4172s_wy7vswfkzq9h0000gn/T/arduino_cache_261188/core/core_33a28a35d5be94a4487e04df0719a759.a(usb_regs.c.o)
 .comment       0x0000000000000000       0x71 /var/folders/28/_tsmhg4172s_wy7vswfkzq9h0000gn/T/arduino_cache_261188/core/core_33a28a35d5be94a4487e04df0719a759.a(util.c.o)
 .comment       0x0000000000000000       0x71 /var/folders/28/_tsmhg4172s_wy7vswfkzq9h0000gn/T/arduino_cache_261188/core/core_33a28a35d5be94a4487e04df0719a759.a(HardwareSerial.cpp.o)
 .comment       0x0000000000000000       0x71 /var/folders/28/_tsmhg4172s_wy7vswfkzq9h0000gn/T/arduino_cache_261188/core/core_33a28a35d5be94a4487e04df0719a759.a(Print.cpp.o)
 .comment       0x0000000000000000       0x71 /var/folders/28/_tsmhg4172s_wy7vswfkzq9h0000gn/T/arduino_cache_261188/core/core_33a28a35d5be94a4487e04df0719a759.a(cxxabi-compat.cpp.o)
 .comment       0x0000000000000000       0x71 /var/folders/28/_tsmhg4172s_wy7vswfkzq9h0000gn/T/arduino_cache_261188/core/core_33a28a35d5be94a4487e04df0719a759.a(main.cpp.o)
 .comment       0x0000000000000000       0x71 /var/folders/28/_tsmhg4172s_wy7vswfkzq9h0000gn/T/arduino_cache_261188/core/core_33a28a35d5be94a4487e04df0719a759.a(wirish_digital_f1.cpp.o)
 .comment       0x0000000000000000       0x71 /var/folders/28/_tsmhg4172s_wy7vswfkzq9h0000gn/T/arduino_cache_261188/core/core_33a28a35d5be94a4487e04df0719a759.a(usb_serial.cpp.o)
 .comment       0x0000000000000000       0x71 /var/folders/28/_tsmhg4172s_wy7vswfkzq9h0000gn/T/arduino_cache_261188/core/core_33a28a35d5be94a4487e04df0719a759.a(wirish_digital.cpp.o)
 .comment       0x0000000000000000       0x71 /var/folders/28/_tsmhg4172s_wy7vswfkzq9h0000gn/T/arduino_cache_261188/core/core_33a28a35d5be94a4487e04df0719a759.a(wirish_time.cpp.o)
 .comment       0x0000000000000000       0x71 /var/folders/28/_tsmhg4172s_wy7vswfkzq9h0000gn/T/arduino_cache_261188/core/core_33a28a35d5be94a4487e04df0719a759.a(hooks.c.o)
 .comment       0x0000000000000000       0x71 /var/folders/28/_tsmhg4172s_wy7vswfkzq9h0000gn/T/arduino_cache_261188/core/core_33a28a35d5be94a4487e04df0719a759.a(bkp_f1.c.o)
 .comment       0x0000000000000000       0x71 /var/folders/28/_tsmhg4172s_wy7vswfkzq9h0000gn/T/arduino_cache_261188/core/core_33a28a35d5be94a4487e04df0719a759.a(dma.c.o)
 .comment       0x0000000000000000       0x71 /var/folders/28/_tsmhg4172s_wy7vswfkzq9h0000gn/T/arduino_cache_261188/core/core_33a28a35d5be94a4487e04df0719a759.a(gpio.c.o)
 .comment       0x0000000000000000       0x71 /var/folders/28/_tsmhg4172s_wy7vswfkzq9h0000gn/T/arduino_cache_261188/core/core_33a28a35d5be94a4487e04df0719a759.a(i2c.c.o)
 .comment       0x0000000000000000       0x71 /var/folders/28/_tsmhg4172s_wy7vswfkzq9h0000gn/T/arduino_cache_261188/core/core_33a28a35d5be94a4487e04df0719a759.a(iwdg.c.o)
 .comment       0x0000000000000000       0x71 /var/folders/28/_tsmhg4172s_wy7vswfkzq9h0000gn/T/arduino_cache_261188/core/core_33a28a35d5be94a4487e04df0719a759.a(usart.c.o)

Cross Reference Table

Symbol                                            File
ADC1                                              /var/folders/28/_tsmhg4172s_wy7vswfkzq9h0000gn/T/arduino_cache_261188/core/core_33a28a35d5be94a4487e04df0719a759.a(adc_f1.c.o)
ADC2                                              /var/folders/28/_tsmhg4172s_wy7vswfkzq9h0000gn/T/arduino_cache_261188/core/core_33a28a35d5be94a4487e04df0719a759.a(adc_f1.c.o)
BKP                                               /var/folders/28/_tsmhg4172s_wy7vswfkzq9h0000gn/T/arduino_cache_261188/core/core_33a28a35d5be94a4487e04df0719a759.a(bkp_f1.c.o)
ByteSwap                                          /var/folders/28/_tsmhg4172s_wy7vswfkzq9h0000gn/T/arduino_cache_261188/core/core_33a28a35d5be94a4487e04df0719a759.a(usb_regs.c.o)
ClearDTOG_RX                                      /var/folders/28/_tsmhg4172s_wy7vswfkzq9h0000gn/T/arduino_cache_261188/core/core_33a28a35d5be94a4487e04df0719a759.a(usb_regs.c.o)
                                                  /var/folders/28/_tsmhg4172s_wy7vswfkzq9h0000gn/T/arduino_cache_261188/core/core_33a28a35d5be94a4487e04df0719a759.a(usb_core.c.o)
ClearDTOG_TX                                      /var/folders/28/_tsmhg4172s_wy7vswfkzq9h0000gn/T/arduino_cache_261188/core/core_33a28a35d5be94a4487e04df0719a759.a(usb_regs.c.o)
                                                  /var/folders/28/_tsmhg4172s_wy7vswfkzq9h0000gn/T/arduino_cache_261188/core/core_33a28a35d5be94a4487e04df0719a759.a(usb_core.c.o)
ClearEPDoubleBuff                                 /var/folders/28/_tsmhg4172s_wy7vswfkzq9h0000gn/T/arduino_cache_261188/core/core_33a28a35d5be94a4487e04df0719a759.a(usb_regs.c.o)
ClearEP_CTR_RX                                    /var/folders/28/_tsmhg4172s_wy7vswfkzq9h0000gn/T/arduino_cache_261188/core/core_33a28a35d5be94a4487e04df0719a759.a(usb_regs.c.o)
ClearEP_CTR_TX                                    /var/folders/28/_tsmhg4172s_wy7vswfkzq9h0000gn/T/arduino_cache_261188/core/core_33a28a35d5be94a4487e04df0719a759.a(usb_regs.c.o)
ClearEP_KIND                                      /var/folders/28/_tsmhg4172s_wy7vswfkzq9h0000gn/T/arduino_cache_261188/core/core_33a28a35d5be94a4487e04df0719a759.a(usb_regs.c.o)
Clear_Status_Out                                  /var/folders/28/_tsmhg4172s_wy7vswfkzq9h0000gn/T/arduino_cache_261188/core/core_33a28a35d5be94a4487e04df0719a759.a(usb_regs.c.o)
DMA1                                              /var/folders/28/_tsmhg4172s_wy7vswfkzq9h0000gn/T/arduino_cache_261188/core/core_33a28a35d5be94a4487e04df0719a759.a(dma_f1.c.o)
Data_Mul_MaxPacketSize                            /var/folders/28/_tsmhg4172s_wy7vswfkzq9h0000gn/T/arduino_cache_261188/core/core_33a28a35d5be94a4487e04df0719a759.a(usb_core.c.o)
Device_Info                                       /var/folders/28/_tsmhg4172s_wy7vswfkzq9h0000gn/T/arduino_cache_261188/core/core_33a28a35d5be94a4487e04df0719a759.a(usb_init.c.o)
                                                  /var/folders/28/_tsmhg4172s_wy7vswfkzq9h0000gn/T/arduino_cache_261188/core/core_33a28a35d5be94a4487e04df0719a759.a(usb.c.o)
Device_Property                                   /var/folders/28/_tsmhg4172s_wy7vswfkzq9h0000gn/T/arduino_cache_261188/core/core_33a28a35d5be94a4487e04df0719a759.a(usb_cdcacm.c.o)
                                                  /var/folders/28/_tsmhg4172s_wy7vswfkzq9h0000gn/T/arduino_cache_261188/core/core_33a28a35d5be94a4487e04df0719a759.a(usb_init.c.o)
                                                  /var/folders/28/_tsmhg4172s_wy7vswfkzq9h0000gn/T/arduino_cache_261188/core/core_33a28a35d5be94a4487e04df0719a759.a(usb_core.c.o)
                                                  /var/folders/28/_tsmhg4172s_wy7vswfkzq9h0000gn/T/arduino_cache_261188/core/core_33a28a35d5be94a4487e04df0719a759.a(usb.c.o)
Device_Table                                      /var/folders/28/_tsmhg4172s_wy7vswfkzq9h0000gn/T/arduino_cache_261188/core/core_33a28a35d5be94a4487e04df0719a759.a(usb_cdcacm.c.o)
                                                  /var/folders/28/_tsmhg4172s_wy7vswfkzq9h0000gn/T/arduino_cache_261188/core/core_33a28a35d5be94a4487e04df0719a759.a(usb_core.c.o)
EPindex                                           /var/folders/28/_tsmhg4172s_wy7vswfkzq9h0000gn/T/arduino_cache_261188/core/core_33a28a35d5be94a4487e04df0719a759.a(usb_init.c.o)
FreeUserBuffer                                    /var/folders/28/_tsmhg4172s_wy7vswfkzq9h0000gn/T/arduino_cache_261188/core/core_33a28a35d5be94a4487e04df0719a759.a(usb_regs.c.o)
GPIOA                                             /var/folders/28/_tsmhg4172s_wy7vswfkzq9h0000gn/T/arduino_cache_261188/core/core_33a28a35d5be94a4487e04df0719a759.a(gpio_f1.c.o)
GPIOB                                             /var/folders/28/_tsmhg4172s_wy7vswfkzq9h0000gn/T/arduino_cache_261188/core/core_33a28a35d5be94a4487e04df0719a759.a(gpio_f1.c.o)
GPIOC                                             /var/folders/28/_tsmhg4172s_wy7vswfkzq9h0000gn/T/arduino_cache_261188/core/core_33a28a35d5be94a4487e04df0719a759.a(gpio_f1.c.o)
                                                  /var/folders/28/_tsmhg4172s_wy7vswfkzq9h0000gn/T/arduino_cache_261188/core/core_33a28a35d5be94a4487e04df0719a759.a(util.c.o)
GPIOD                                             /var/folders/28/_tsmhg4172s_wy7vswfkzq9h0000gn/T/arduino_cache_261188/core/core_33a28a35d5be94a4487e04df0719a759.a(gpio_f1.c.o)
GetBTABLE                                         /var/folders/28/_tsmhg4172s_wy7vswfkzq9h0000gn/T/arduino_cache_261188/core/core_33a28a35d5be94a4487e04df0719a759.a(usb_regs.c.o)
GetCNTR                                           /var/folders/28/_tsmhg4172s_wy7vswfkzq9h0000gn/T/arduino_cache_261188/core/core_33a28a35d5be94a4487e04df0719a759.a(usb_regs.c.o)
GetDADDR                                          /var/folders/28/_tsmhg4172s_wy7vswfkzq9h0000gn/T/arduino_cache_261188/core/core_33a28a35d5be94a4487e04df0719a759.a(usb_regs.c.o)
GetENDPOINT                                       /var/folders/28/_tsmhg4172s_wy7vswfkzq9h0000gn/T/arduino_cache_261188/core/core_33a28a35d5be94a4487e04df0719a759.a(usb_regs.c.o)
GetEPAddress                                      /var/folders/28/_tsmhg4172s_wy7vswfkzq9h0000gn/T/arduino_cache_261188/core/core_33a28a35d5be94a4487e04df0719a759.a(usb_regs.c.o)
GetEPDblBuf0Addr                                  /var/folders/28/_tsmhg4172s_wy7vswfkzq9h0000gn/T/arduino_cache_261188/core/core_33a28a35d5be94a4487e04df0719a759.a(usb_regs.c.o)
GetEPDblBuf0Count                                 /var/folders/28/_tsmhg4172s_wy7vswfkzq9h0000gn/T/arduino_cache_261188/core/core_33a28a35d5be94a4487e04df0719a759.a(usb_regs.c.o)
GetEPDblBuf1Addr                                  /var/folders/28/_tsmhg4172s_wy7vswfkzq9h0000gn/T/arduino_cache_261188/core/core_33a28a35d5be94a4487e04df0719a759.a(usb_regs.c.o)
GetEPDblBuf1Count                                 /var/folders/28/_tsmhg4172s_wy7vswfkzq9h0000gn/T/arduino_cache_261188/core/core_33a28a35d5be94a4487e04df0719a759.a(usb_regs.c.o)
GetEPDblBufDir                                    /var/folders/28/_tsmhg4172s_wy7vswfkzq9h0000gn/T/arduino_cache_261188/core/core_33a28a35d5be94a4487e04df0719a759.a(usb_regs.c.o)
GetEPRxAddr                                       /var/folders/28/_tsmhg4172s_wy7vswfkzq9h0000gn/T/arduino_cache_261188/core/core_33a28a35d5be94a4487e04df0719a759.a(usb_regs.c.o)
                                                  /var/folders/28/_tsmhg4172s_wy7vswfkzq9h0000gn/T/arduino_cache_261188/core/core_33a28a35d5be94a4487e04df0719a759.a(usb_core.c.o)
GetEPRxCount                                      /var/folders/28/_tsmhg4172s_wy7vswfkzq9h0000gn/T/arduino_cache_261188/core/core_33a28a35d5be94a4487e04df0719a759.a(usb_regs.c.o)
GetEPRxStatus                                     /var/folders/28/_tsmhg4172s_wy7vswfkzq9h0000gn/T/arduino_cache_261188/core/core_33a28a35d5be94a4487e04df0719a759.a(usb_regs.c.o)
GetEPTxAddr                                       /var/folders/28/_tsmhg4172s_wy7vswfkzq9h0000gn/T/arduino_cache_261188/core/core_33a28a35d5be94a4487e04df0719a759.a(usb_regs.c.o)
                                                  /var/folders/28/_tsmhg4172s_wy7vswfkzq9h0000gn/T/arduino_cache_261188/core/core_33a28a35d5be94a4487e04df0719a759.a(usb_core.c.o)
GetEPTxCount                                      /var/folders/28/_tsmhg4172s_wy7vswfkzq9h0000gn/T/arduino_cache_261188/core/core_33a28a35d5be94a4487e04df0719a759.a(usb_regs.c.o)
GetEPTxStatus                                     /var/folders/28/_tsmhg4172s_wy7vswfkzq9h0000gn/T/arduino_cache_261188/core/core_33a28a35d5be94a4487e04df0719a759.a(usb_regs.c.o)
GetEPType                                         /var/folders/28/_tsmhg4172s_wy7vswfkzq9h0000gn/T/arduino_cache_261188/core/core_33a28a35d5be94a4487e04df0719a759.a(usb_regs.c.o)
GetFNR                                            /var/folders/28/_tsmhg4172s_wy7vswfkzq9h0000gn/T/arduino_cache_261188/core/core_33a28a35d5be94a4487e04df0719a759.a(usb_regs.c.o)
GetISTR                                           /var/folders/28/_tsmhg4172s_wy7vswfkzq9h0000gn/T/arduino_cache_261188/core/core_33a28a35d5be94a4487e04df0719a759.a(usb_regs.c.o)
GetRxStallStatus                                  /var/folders/28/_tsmhg4172s_wy7vswfkzq9h0000gn/T/arduino_cache_261188/core/core_33a28a35d5be94a4487e04df0719a759.a(usb_regs.c.o)
GetTxStallStatus                                  /var/folders/28/_tsmhg4172s_wy7vswfkzq9h0000gn/T/arduino_cache_261188/core/core_33a28a35d5be94a4487e04df0719a759.a(usb_regs.c.o)
HardwareSerial::HardwareSerial(usart_dev*, unsigned char, unsigned char) /var/folders/28/_tsmhg4172s_wy7vswfkzq9h0000gn/T/arduino_cache_261188/core/core_33a28a35d5be94a4487e04df0719a759.a(HardwareSerial.cpp.o)
                                                  /var/folders/28/_tsmhg4172s_wy7vswfkzq9h0000gn/T/arduino_build_279421/core/board.cpp.o
HardwareSerial::HardwareSerial(usart_dev*, unsigned char, unsigned char) /var/folders/28/_tsmhg4172s_wy7vswfkzq9h0000gn/T/arduino_cache_261188/core/core_33a28a35d5be94a4487e04df0719a759.a(HardwareSerial.cpp.o)
HardwareSerial::available()                       /var/folders/28/_tsmhg4172s_wy7vswfkzq9h0000gn/T/arduino_cache_261188/core/core_33a28a35d5be94a4487e04df0719a759.a(HardwareSerial.cpp.o)
HardwareSerial::availableForWrite()               /var/folders/28/_tsmhg4172s_wy7vswfkzq9h0000gn/T/arduino_cache_261188/core/core_33a28a35d5be94a4487e04df0719a759.a(HardwareSerial.cpp.o)
HardwareSerial::begin(unsigned long)              /var/folders/28/_tsmhg4172s_wy7vswfkzq9h0000gn/T/arduino_cache_261188/core/core_33a28a35d5be94a4487e04df0719a759.a(HardwareSerial.cpp.o)
HardwareSerial::begin(unsigned long, unsigned char) /var/folders/28/_tsmhg4172s_wy7vswfkzq9h0000gn/T/arduino_cache_261188/core/core_33a28a35d5be94a4487e04df0719a759.a(HardwareSerial.cpp.o)
HardwareSerial::end()                             /var/folders/28/_tsmhg4172s_wy7vswfkzq9h0000gn/T/arduino_cache_261188/core/core_33a28a35d5be94a4487e04df0719a759.a(HardwareSerial.cpp.o)
HardwareSerial::flush()                           /var/folders/28/_tsmhg4172s_wy7vswfkzq9h0000gn/T/arduino_cache_261188/core/core_33a28a35d5be94a4487e04df0719a759.a(HardwareSerial.cpp.o)
HardwareSerial::peek()                            /var/folders/28/_tsmhg4172s_wy7vswfkzq9h0000gn/T/arduino_cache_261188/core/core_33a28a35d5be94a4487e04df0719a759.a(HardwareSerial.cpp.o)
HardwareSerial::read()                            /var/folders/28/_tsmhg4172s_wy7vswfkzq9h0000gn/T/arduino_cache_261188/core/core_33a28a35d5be94a4487e04df0719a759.a(HardwareSerial.cpp.o)
HardwareSerial::write(unsigned char)              /var/folders/28/_tsmhg4172s_wy7vswfkzq9h0000gn/T/arduino_cache_261188/core/core_33a28a35d5be94a4487e04df0719a759.a(HardwareSerial.cpp.o)
I2C1                                              /var/folders/28/_tsmhg4172s_wy7vswfkzq9h0000gn/T/arduino_cache_261188/core/core_33a28a35d5be94a4487e04df0719a759.a(i2c_f1.c.o)
                                                  /var/folders/28/_tsmhg4172s_wy7vswfkzq9h0000gn/T/arduino_cache_261188/core/core_33a28a35d5be94a4487e04df0719a759.a(i2c.c.o)
I2C2                                              /var/folders/28/_tsmhg4172s_wy7vswfkzq9h0000gn/T/arduino_cache_261188/core/core_33a28a35d5be94a4487e04df0719a759.a(i2c_f1.c.o)
In0_Process                                       /var/folders/28/_tsmhg4172s_wy7vswfkzq9h0000gn/T/arduino_cache_261188/core/core_33a28a35d5be94a4487e04df0719a759.a(usb_core.c.o)
                                                  /var/folders/28/_tsmhg4172s_wy7vswfkzq9h0000gn/T/arduino_cache_261188/core/core_33a28a35d5be94a4487e04df0719a759.a(usb.c.o)
NOP_Process                                       /var/folders/28/_tsmhg4172s_wy7vswfkzq9h0000gn/T/arduino_cache_261188/core/core_33a28a35d5be94a4487e04df0719a759.a(usb_core.c.o)
                                                  /var/folders/28/_tsmhg4172s_wy7vswfkzq9h0000gn/T/arduino_cache_261188/core/core_33a28a35d5be94a4487e04df0719a759.a(usb_cdcacm.c.o)
Out0_Process                                      /var/folders/28/_tsmhg4172s_wy7vswfkzq9h0000gn/T/arduino_cache_261188/core/core_33a28a35d5be94a4487e04df0719a759.a(usb_core.c.o)
                                                  /var/folders/28/_tsmhg4172s_wy7vswfkzq9h0000gn/T/arduino_cache_261188/core/core_33a28a35d5be94a4487e04df0719a759.a(usb.c.o)
PIN_MAP                                           /var/folders/28/_tsmhg4172s_wy7vswfkzq9h0000gn/T/arduino_build_279421/core/board.cpp.o
                                                  /var/folders/28/_tsmhg4172s_wy7vswfkzq9h0000gn/T/arduino_cache_261188/core/core_33a28a35d5be94a4487e04df0719a759.a(wirish_digital.cpp.o)
                                                  /var/folders/28/_tsmhg4172s_wy7vswfkzq9h0000gn/T/arduino_cache_261188/core/core_33a28a35d5be94a4487e04df0719a759.a(wirish_digital_f1.cpp.o)
                                                  /var/folders/28/_tsmhg4172s_wy7vswfkzq9h0000gn/T/arduino_cache_261188/core/core_33a28a35d5be94a4487e04df0719a759.a(HardwareSerial.cpp.o)
                                                  /var/folders/28/_tsmhg4172s_wy7vswfkzq9h0000gn/T/arduino_build_279421/core/wirish/boards_setup.cpp.o
PMAToUserBufferCopy                               /var/folders/28/_tsmhg4172s_wy7vswfkzq9h0000gn/T/arduino_cache_261188/core/core_33a28a35d5be94a4487e04df0719a759.a(usb_mem.c.o)
                                                  /var/folders/28/_tsmhg4172s_wy7vswfkzq9h0000gn/T/arduino_cache_261188/core/core_33a28a35d5be94a4487e04df0719a759.a(usb_core.c.o)
Post0_Process                                     /var/folders/28/_tsmhg4172s_wy7vswfkzq9h0000gn/T/arduino_cache_261188/core/core_33a28a35d5be94a4487e04df0719a759.a(usb_core.c.o)
Print::print(Printable const&)                    /var/folders/28/_tsmhg4172s_wy7vswfkzq9h0000gn/T/arduino_cache_261188/core/core_33a28a35d5be94a4487e04df0719a759.a(Print.cpp.o)
Print::print(String const&)                       /var/folders/28/_tsmhg4172s_wy7vswfkzq9h0000gn/T/arduino_cache_261188/core/core_33a28a35d5be94a4487e04df0719a759.a(Print.cpp.o)
Print::print(__FlashStringHelper const*)          /var/folders/28/_tsmhg4172s_wy7vswfkzq9h0000gn/T/arduino_cache_261188/core/core_33a28a35d5be94a4487e04df0719a759.a(Print.cpp.o)
Print::print(char const*)                         /var/folders/28/_tsmhg4172s_wy7vswfkzq9h0000gn/T/arduino_cache_261188/core/core_33a28a35d5be94a4487e04df0719a759.a(Print.cpp.o)
Print::print(char)                                /var/folders/28/_tsmhg4172s_wy7vswfkzq9h0000gn/T/arduino_cache_261188/core/core_33a28a35d5be94a4487e04df0719a759.a(Print.cpp.o)
Print::print(double, int)                         /var/folders/28/_tsmhg4172s_wy7vswfkzq9h0000gn/T/arduino_cache_261188/core/core_33a28a35d5be94a4487e04df0719a759.a(Print.cpp.o)
Print::print(int, int)                            /var/folders/28/_tsmhg4172s_wy7vswfkzq9h0000gn/T/arduino_cache_261188/core/core_33a28a35d5be94a4487e04df0719a759.a(Print.cpp.o)
Print::print(long long, int)                      /var/folders/28/_tsmhg4172s_wy7vswfkzq9h0000gn/T/arduino_cache_261188/core/core_33a28a35d5be94a4487e04df0719a759.a(Print.cpp.o)
Print::print(long, int)                           /var/folders/28/_tsmhg4172s_wy7vswfkzq9h0000gn/T/arduino_cache_261188/core/core_33a28a35d5be94a4487e04df0719a759.a(Print.cpp.o)
Print::print(unsigned char, int)                  /var/folders/28/_tsmhg4172s_wy7vswfkzq9h0000gn/T/arduino_cache_261188/core/core_33a28a35d5be94a4487e04df0719a759.a(Print.cpp.o)
Print::print(unsigned int, int)                   /var/folders/28/_tsmhg4172s_wy7vswfkzq9h0000gn/T/arduino_cache_261188/core/core_33a28a35d5be94a4487e04df0719a759.a(Print.cpp.o)
Print::print(unsigned long long, int)             /var/folders/28/_tsmhg4172s_wy7vswfkzq9h0000gn/T/arduino_cache_261188/core/core_33a28a35d5be94a4487e04df0719a759.a(Print.cpp.o)
Print::print(unsigned long, int)                  /var/folders/28/_tsmhg4172s_wy7vswfkzq9h0000gn/T/arduino_cache_261188/core/core_33a28a35d5be94a4487e04df0719a759.a(Print.cpp.o)
Print::printFloat(double, unsigned char)          /var/folders/28/_tsmhg4172s_wy7vswfkzq9h0000gn/T/arduino_cache_261188/core/core_33a28a35d5be94a4487e04df0719a759.a(Print.cpp.o)
Print::printNumber(unsigned long long, unsigned char) /var/folders/28/_tsmhg4172s_wy7vswfkzq9h0000gn/T/arduino_cache_261188/core/core_33a28a35d5be94a4487e04df0719a759.a(Print.cpp.o)
Print::println()                                  /var/folders/28/_tsmhg4172s_wy7vswfkzq9h0000gn/T/arduino_cache_261188/core/core_33a28a35d5be94a4487e04df0719a759.a(Print.cpp.o)
Print::println(Printable const&)                  /var/folders/28/_tsmhg4172s_wy7vswfkzq9h0000gn/T/arduino_cache_261188/core/core_33a28a35d5be94a4487e04df0719a759.a(Print.cpp.o)
Print::println(String const&)                     /var/folders/28/_tsmhg4172s_wy7vswfkzq9h0000gn/T/arduino_cache_261188/core/core_33a28a35d5be94a4487e04df0719a759.a(Print.cpp.o)
Print::println(__FlashStringHelper const*)        /var/folders/28/_tsmhg4172s_wy7vswfkzq9h0000gn/T/arduino_cache_261188/core/core_33a28a35d5be94a4487e04df0719a759.a(Print.cpp.o)
Print::println(char const*)                       /var/folders/28/_tsmhg4172s_wy7vswfkzq9h0000gn/T/arduino_cache_261188/core/core_33a28a35d5be94a4487e04df0719a759.a(Print.cpp.o)
Print::println(char)                              /var/folders/28/_tsmhg4172s_wy7vswfkzq9h0000gn/T/arduino_cache_261188/core/core_33a28a35d5be94a4487e04df0719a759.a(Print.cpp.o)
Print::println(double, int)                       /var/folders/28/_tsmhg4172s_wy7vswfkzq9h0000gn/T/arduino_cache_261188/core/core_33a28a35d5be94a4487e04df0719a759.a(Print.cpp.o)
Print::println(int, int)                          /var/folders/28/_tsmhg4172s_wy7vswfkzq9h0000gn/T/arduino_cache_261188/core/core_33a28a35d5be94a4487e04df0719a759.a(Print.cpp.o)
Print::println(long long, int)                    /var/folders/28/_tsmhg4172s_wy7vswfkzq9h0000gn/T/arduino_cache_261188/core/core_33a28a35d5be94a4487e04df0719a759.a(Print.cpp.o)
Print::println(long, int)                         /var/folders/28/_tsmhg4172s_wy7vswfkzq9h0000gn/T/arduino_cache_261188/core/core_33a28a35d5be94a4487e04df0719a759.a(Print.cpp.o)
Print::println(unsigned char, int)                /var/folders/28/_tsmhg4172s_wy7vswfkzq9h0000gn/T/arduino_cache_261188/core/core_33a28a35d5be94a4487e04df0719a759.a(Print.cpp.o)
Print::println(unsigned int, int)                 /var/folders/28/_tsmhg4172s_wy7vswfkzq9h0000gn/T/arduino_cache_261188/core/core_33a28a35d5be94a4487e04df0719a759.a(Print.cpp.o)
Print::println(unsigned long long, int)           /var/folders/28/_tsmhg4172s_wy7vswfkzq9h0000gn/T/arduino_cache_261188/core/core_33a28a35d5be94a4487e04df0719a759.a(Print.cpp.o)
Print::println(unsigned long, int)                /var/folders/28/_tsmhg4172s_wy7vswfkzq9h0000gn/T/arduino_cache_261188/core/core_33a28a35d5be94a4487e04df0719a759.a(Print.cpp.o)
Print::write(char const*)                         /var/folders/28/_tsmhg4172s_wy7vswfkzq9h0000gn/T/arduino_cache_261188/core/core_33a28a35d5be94a4487e04df0719a759.a(Print.cpp.o)
                                                  /var/folders/28/_tsmhg4172s_wy7vswfkzq9h0000gn/T/arduino_cache_261188/core/core_33a28a35d5be94a4487e04df0719a759.a(usb_serial.cpp.o)
                                                  /var/folders/28/_tsmhg4172s_wy7vswfkzq9h0000gn/T/arduino_cache_261188/core/core_33a28a35d5be94a4487e04df0719a759.a(HardwareSerial.cpp.o)
Print::write(void const*, unsigned long)          /var/folders/28/_tsmhg4172s_wy7vswfkzq9h0000gn/T/arduino_cache_261188/core/core_33a28a35d5be94a4487e04df0719a759.a(Print.cpp.o)
                                                  /var/folders/28/_tsmhg4172s_wy7vswfkzq9h0000gn/T/arduino_cache_261188/core/core_33a28a35d5be94a4487e04df0719a759.a(usb_serial.cpp.o)
                                                  /var/folders/28/_tsmhg4172s_wy7vswfkzq9h0000gn/T/arduino_cache_261188/core/core_33a28a35d5be94a4487e04df0719a759.a(HardwareSerial.cpp.o)
ResumeS                                           /var/folders/28/_tsmhg4172s_wy7vswfkzq9h0000gn/T/arduino_cache_261188/core/core_33a28a35d5be94a4487e04df0719a759.a(usb.c.o)
SaveRState                                        /var/folders/28/_tsmhg4172s_wy7vswfkzq9h0000gn/T/arduino_cache_261188/core/core_33a28a35d5be94a4487e04df0719a759.a(usb_core.c.o)
                                                  /var/folders/28/_tsmhg4172s_wy7vswfkzq9h0000gn/T/arduino_cache_261188/core/core_33a28a35d5be94a4487e04df0719a759.a(usb.c.o)
SaveState                                         /var/folders/28/_tsmhg4172s_wy7vswfkzq9h0000gn/T/arduino_cache_261188/core/core_33a28a35d5be94a4487e04df0719a759.a(usb_init.c.o)
SaveTState                                        /var/folders/28/_tsmhg4172s_wy7vswfkzq9h0000gn/T/arduino_cache_261188/core/core_33a28a35d5be94a4487e04df0719a759.a(usb_core.c.o)
                                                  /var/folders/28/_tsmhg4172s_wy7vswfkzq9h0000gn/T/arduino_cache_261188/core/core_33a28a35d5be94a4487e04df0719a759.a(usb.c.o)
Serial                                            /var/folders/28/_tsmhg4172s_wy7vswfkzq9h0000gn/T/arduino_cache_261188/core/core_33a28a35d5be94a4487e04df0719a759.a(usb_serial.cpp.o)
                                                  /var/folders/28/_tsmhg4172s_wy7vswfkzq9h0000gn/T/arduino_build_279421/core/wirish/boards_setup.cpp.o
Serial1                                           /var/folders/28/_tsmhg4172s_wy7vswfkzq9h0000gn/T/arduino_build_279421/core/board.cpp.o
Serial2                                           /var/folders/28/_tsmhg4172s_wy7vswfkzq9h0000gn/T/arduino_build_279421/core/board.cpp.o
Serial3                                           /var/folders/28/_tsmhg4172s_wy7vswfkzq9h0000gn/T/arduino_build_279421/core/board.cpp.o
SetBTABLE                                         /var/folders/28/_tsmhg4172s_wy7vswfkzq9h0000gn/T/arduino_cache_261188/core/core_33a28a35d5be94a4487e04df0719a759.a(usb_regs.c.o)
SetCNTR                                           /var/folders/28/_tsmhg4172s_wy7vswfkzq9h0000gn/T/arduino_cache_261188/core/core_33a28a35d5be94a4487e04df0719a759.a(usb_regs.c.o)
SetDADDR                                          /var/folders/28/_tsmhg4172s_wy7vswfkzq9h0000gn/T/arduino_cache_261188/core/core_33a28a35d5be94a4487e04df0719a759.a(usb_regs.c.o)
SetDeviceAddress                                  /var/folders/28/_tsmhg4172s_wy7vswfkzq9h0000gn/T/arduino_cache_261188/core/core_33a28a35d5be94a4487e04df0719a759.a(usb_core.c.o)
                                                  /var/folders/28/_tsmhg4172s_wy7vswfkzq9h0000gn/T/arduino_cache_261188/core/core_33a28a35d5be94a4487e04df0719a759.a(usb_cdcacm.c.o)
SetDouBleBuffEPStall                              /var/folders/28/_tsmhg4172s_wy7vswfkzq9h0000gn/T/arduino_cache_261188/core/core_33a28a35d5be94a4487e04df0719a759.a(usb_regs.c.o)
SetENDPOINT                                       /var/folders/28/_tsmhg4172s_wy7vswfkzq9h0000gn/T/arduino_cache_261188/core/core_33a28a35d5be94a4487e04df0719a759.a(usb_regs.c.o)
SetEPAddress                                      /var/folders/28/_tsmhg4172s_wy7vswfkzq9h0000gn/T/arduino_cache_261188/core/core_33a28a35d5be94a4487e04df0719a759.a(usb_regs.c.o)
SetEPCountRxReg                                   /var/folders/28/_tsmhg4172s_wy7vswfkzq9h0000gn/T/arduino_cache_261188/core/core_33a28a35d5be94a4487e04df0719a759.a(usb_regs.c.o)
SetEPDblBuf0Addr                                  /var/folders/28/_tsmhg4172s_wy7vswfkzq9h0000gn/T/arduino_cache_261188/core/core_33a28a35d5be94a4487e04df0719a759.a(usb_regs.c.o)
SetEPDblBuf0Count                                 /var/folders/28/_tsmhg4172s_wy7vswfkzq9h0000gn/T/arduino_cache_261188/core/core_33a28a35d5be94a4487e04df0719a759.a(usb_regs.c.o)
SetEPDblBuf1Addr                                  /var/folders/28/_tsmhg4172s_wy7vswfkzq9h0000gn/T/arduino_cache_261188/core/core_33a28a35d5be94a4487e04df0719a759.a(usb_regs.c.o)
SetEPDblBuf1Count                                 /var/folders/28/_tsmhg4172s_wy7vswfkzq9h0000gn/T/arduino_cache_261188/core/core_33a28a35d5be94a4487e04df0719a759.a(usb_regs.c.o)
SetEPDblBuffAddr                                  /var/folders/28/_tsmhg4172s_wy7vswfkzq9h0000gn/T/arduino_cache_261188/core/core_33a28a35d5be94a4487e04df0719a759.a(usb_regs.c.o)
SetEPDblBuffCount                                 /var/folders/28/_tsmhg4172s_wy7vswfkzq9h0000gn/T/arduino_cache_261188/core/core_33a28a35d5be94a4487e04df0719a759.a(usb_regs.c.o)
SetEPDoubleBuff                                   /var/folders/28/_tsmhg4172s_wy7vswfkzq9h0000gn/T/arduino_cache_261188/core/core_33a28a35d5be94a4487e04df0719a759.a(usb_regs.c.o)
SetEPRxAddr                                       /var/folders/28/_tsmhg4172s_wy7vswfkzq9h0000gn/T/arduino_cache_261188/core/core_33a28a35d5be94a4487e04df0719a759.a(usb_regs.c.o)
SetEPRxCount                                      /var/folders/28/_tsmhg4172s_wy7vswfkzq9h0000gn/T/arduino_cache_261188/core/core_33a28a35d5be94a4487e04df0719a759.a(usb_regs.c.o)
                                                  /var/folders/28/_tsmhg4172s_wy7vswfkzq9h0000gn/T/arduino_cache_261188/core/core_33a28a35d5be94a4487e04df0719a759.a(usb_core.c.o)
SetEPRxStatus                                     /var/folders/28/_tsmhg4172s_wy7vswfkzq9h0000gn/T/arduino_cache_261188/core/core_33a28a35d5be94a4487e04df0719a759.a(usb_regs.c.o)
SetEPRxValid                                      /var/folders/28/_tsmhg4172s_wy7vswfkzq9h0000gn/T/arduino_cache_261188/core/core_33a28a35d5be94a4487e04df0719a759.a(usb_regs.c.o)
SetEPTxAddr                                       /var/folders/28/_tsmhg4172s_wy7vswfkzq9h0000gn/T/arduino_cache_261188/core/core_33a28a35d5be94a4487e04df0719a759.a(usb_regs.c.o)
SetEPTxCount                                      /var/folders/28/_tsmhg4172s_wy7vswfkzq9h0000gn/T/arduino_cache_261188/core/core_33a28a35d5be94a4487e04df0719a759.a(usb_regs.c.o)
                                                  /var/folders/28/_tsmhg4172s_wy7vswfkzq9h0000gn/T/arduino_cache_261188/core/core_33a28a35d5be94a4487e04df0719a759.a(usb_core.c.o)
SetEPTxStatus                                     /var/folders/28/_tsmhg4172s_wy7vswfkzq9h0000gn/T/arduino_cache_261188/core/core_33a28a35d5be94a4487e04df0719a759.a(usb_regs.c.o)
                                                  /var/folders/28/_tsmhg4172s_wy7vswfkzq9h0000gn/T/arduino_cache_261188/core/core_33a28a35d5be94a4487e04df0719a759.a(usb_core.c.o)
SetEPTxValid                                      /var/folders/28/_tsmhg4172s_wy7vswfkzq9h0000gn/T/arduino_cache_261188/core/core_33a28a35d5be94a4487e04df0719a759.a(usb_regs.c.o)
SetEPType                                         /var/folders/28/_tsmhg4172s_wy7vswfkzq9h0000gn/T/arduino_cache_261188/core/core_33a28a35d5be94a4487e04df0719a759.a(usb_regs.c.o)
SetEP_KIND                                        /var/folders/28/_tsmhg4172s_wy7vswfkzq9h0000gn/T/arduino_cache_261188/core/core_33a28a35d5be94a4487e04df0719a759.a(usb_regs.c.o)
SetISTR                                           /var/folders/28/_tsmhg4172s_wy7vswfkzq9h0000gn/T/arduino_cache_261188/core/core_33a28a35d5be94a4487e04df0719a759.a(usb_regs.c.o)
Set_Status_Out                                    /var/folders/28/_tsmhg4172s_wy7vswfkzq9h0000gn/T/arduino_cache_261188/core/core_33a28a35d5be94a4487e04df0719a759.a(usb_regs.c.o)
Setup0_Process                                    /var/folders/28/_tsmhg4172s_wy7vswfkzq9h0000gn/T/arduino_cache_261188/core/core_33a28a35d5be94a4487e04df0719a759.a(usb_core.c.o)
                                                  /var/folders/28/_tsmhg4172s_wy7vswfkzq9h0000gn/T/arduino_cache_261188/core/core_33a28a35d5be94a4487e04df0719a759.a(usb.c.o)
Standard_ClearFeature                             /var/folders/28/_tsmhg4172s_wy7vswfkzq9h0000gn/T/arduino_cache_261188/core/core_33a28a35d5be94a4487e04df0719a759.a(usb_core.c.o)
Standard_GetConfiguration                         /var/folders/28/_tsmhg4172s_wy7vswfkzq9h0000gn/T/arduino_cache_261188/core/core_33a28a35d5be94a4487e04df0719a759.a(usb_core.c.o)
Standard_GetDescriptorData                        /var/folders/28/_tsmhg4172s_wy7vswfkzq9h0000gn/T/arduino_cache_261188/core/core_33a28a35d5be94a4487e04df0719a759.a(usb_core.c.o)
                                                  /var/folders/28/_tsmhg4172s_wy7vswfkzq9h0000gn/T/arduino_cache_261188/core/core_33a28a35d5be94a4487e04df0719a759.a(usb_cdcacm.c.o)
Standard_GetInterface                             /var/folders/28/_tsmhg4172s_wy7vswfkzq9h0000gn/T/arduino_cache_261188/core/core_33a28a35d5be94a4487e04df0719a759.a(usb_core.c.o)
Standard_GetStatus                                /var/folders/28/_tsmhg4172s_wy7vswfkzq9h0000gn/T/arduino_cache_261188/core/core_33a28a35d5be94a4487e04df0719a759.a(usb_core.c.o)
Standard_SetConfiguration                         /var/folders/28/_tsmhg4172s_wy7vswfkzq9h0000gn/T/arduino_cache_261188/core/core_33a28a35d5be94a4487e04df0719a759.a(usb_core.c.o)
Standard_SetDeviceFeature                         /var/folders/28/_tsmhg4172s_wy7vswfkzq9h0000gn/T/arduino_cache_261188/core/core_33a28a35d5be94a4487e04df0719a759.a(usb_core.c.o)
Standard_SetEndPointFeature                       /var/folders/28/_tsmhg4172s_wy7vswfkzq9h0000gn/T/arduino_cache_261188/core/core_33a28a35d5be94a4487e04df0719a759.a(usb_core.c.o)
Standard_SetInterface                             /var/folders/28/_tsmhg4172s_wy7vswfkzq9h0000gn/T/arduino_cache_261188/core/core_33a28a35d5be94a4487e04df0719a759.a(usb_core.c.o)
StatusInfo                                        /var/folders/28/_tsmhg4172s_wy7vswfkzq9h0000gn/T/arduino_cache_261188/core/core_33a28a35d5be94a4487e04df0719a759.a(usb_core.c.o)
TIMER1                                            /var/folders/28/_tsmhg4172s_wy7vswfkzq9h0000gn/T/arduino_cache_261188/core/core_33a28a35d5be94a4487e04df0719a759.a(timer.c.o)
TIMER2                                            /var/folders/28/_tsmhg4172s_wy7vswfkzq9h0000gn/T/arduino_cache_261188/core/core_33a28a35d5be94a4487e04df0719a759.a(timer.c.o)
TIMER3                                            /var/folders/28/_tsmhg4172s_wy7vswfkzq9h0000gn/T/arduino_cache_261188/core/core_33a28a35d5be94a4487e04df0719a759.a(timer.c.o)
TIMER4                                            /var/folders/28/_tsmhg4172s_wy7vswfkzq9h0000gn/T/arduino_cache_261188/core/core_33a28a35d5be94a4487e04df0719a759.a(timer.c.o)
ToWord                                            /var/folders/28/_tsmhg4172s_wy7vswfkzq9h0000gn/T/arduino_cache_261188/core/core_33a28a35d5be94a4487e04df0719a759.a(usb_regs.c.o)
ToggleDTOG_RX                                     /var/folders/28/_tsmhg4172s_wy7vswfkzq9h0000gn/T/arduino_cache_261188/core/core_33a28a35d5be94a4487e04df0719a759.a(usb_regs.c.o)
ToggleDTOG_TX                                     /var/folders/28/_tsmhg4172s_wy7vswfkzq9h0000gn/T/arduino_cache_261188/core/core_33a28a35d5be94a4487e04df0719a759.a(usb_regs.c.o)
USART1                                            /var/folders/28/_tsmhg4172s_wy7vswfkzq9h0000gn/T/arduino_cache_261188/core/core_33a28a35d5be94a4487e04df0719a759.a(usart_f1.c.o)
                                                  /var/folders/28/_tsmhg4172s_wy7vswfkzq9h0000gn/T/arduino_build_279421/core/board.cpp.o
USART2                                            /var/folders/28/_tsmhg4172s_wy7vswfkzq9h0000gn/T/arduino_cache_261188/core/core_33a28a35d5be94a4487e04df0719a759.a(usart_f1.c.o)
                                                  /var/folders/28/_tsmhg4172s_wy7vswfkzq9h0000gn/T/arduino_build_279421/core/board.cpp.o
USART3                                            /var/folders/28/_tsmhg4172s_wy7vswfkzq9h0000gn/T/arduino_cache_261188/core/core_33a28a35d5be94a4487e04df0719a759.a(usart_f1.c.o)
                                                  /var/folders/28/_tsmhg4172s_wy7vswfkzq9h0000gn/T/arduino_build_279421/core/board.cpp.o
USBLIB                                            /var/folders/28/_tsmhg4172s_wy7vswfkzq9h0000gn/T/arduino_cache_261188/core/core_33a28a35d5be94a4487e04df0719a759.a(usb.c.o)
                                                  /var/folders/28/_tsmhg4172s_wy7vswfkzq9h0000gn/T/arduino_cache_261188/core/core_33a28a35d5be94a4487e04df0719a759.a(usb_serial.cpp.o)
                                                  /var/folders/28/_tsmhg4172s_wy7vswfkzq9h0000gn/T/arduino_cache_261188/core/core_33a28a35d5be94a4487e04df0719a759.a(usb_cdcacm.c.o)
USBSerial::USBSerial()                            /var/folders/28/_tsmhg4172s_wy7vswfkzq9h0000gn/T/arduino_cache_261188/core/core_33a28a35d5be94a4487e04df0719a759.a(usb_serial.cpp.o)
USBSerial::USBSerial()                            /var/folders/28/_tsmhg4172s_wy7vswfkzq9h0000gn/T/arduino_cache_261188/core/core_33a28a35d5be94a4487e04df0719a759.a(usb_serial.cpp.o)
USBSerial::_hasBegun                              /var/folders/28/_tsmhg4172s_wy7vswfkzq9h0000gn/T/arduino_cache_261188/core/core_33a28a35d5be94a4487e04df0719a759.a(usb_serial.cpp.o)
USBSerial::available()                            /var/folders/28/_tsmhg4172s_wy7vswfkzq9h0000gn/T/arduino_cache_261188/core/core_33a28a35d5be94a4487e04df0719a759.a(usb_serial.cpp.o)
USBSerial::begin()                                /var/folders/28/_tsmhg4172s_wy7vswfkzq9h0000gn/T/arduino_cache_261188/core/core_33a28a35d5be94a4487e04df0719a759.a(usb_serial.cpp.o)
                                                  /var/folders/28/_tsmhg4172s_wy7vswfkzq9h0000gn/T/arduino_build_279421/core/wirish/boards_setup.cpp.o
USBSerial::begin(unsigned long)                   /var/folders/28/_tsmhg4172s_wy7vswfkzq9h0000gn/T/arduino_cache_261188/core/core_33a28a35d5be94a4487e04df0719a759.a(usb_serial.cpp.o)
USBSerial::begin(unsigned long, unsigned char)    /var/folders/28/_tsmhg4172s_wy7vswfkzq9h0000gn/T/arduino_cache_261188/core/core_33a28a35d5be94a4487e04df0719a759.a(usb_serial.cpp.o)
USBSerial::end()                                  /var/folders/28/_tsmhg4172s_wy7vswfkzq9h0000gn/T/arduino_cache_261188/core/core_33a28a35d5be94a4487e04df0719a759.a(usb_serial.cpp.o)
USBSerial::flush()                                /var/folders/28/_tsmhg4172s_wy7vswfkzq9h0000gn/T/arduino_cache_261188/core/core_33a28a35d5be94a4487e04df0719a759.a(usb_serial.cpp.o)
USBSerial::getDTR()                               /var/folders/28/_tsmhg4172s_wy7vswfkzq9h0000gn/T/arduino_cache_261188/core/core_33a28a35d5be94a4487e04df0719a759.a(usb_serial.cpp.o)
USBSerial::getRTS()                               /var/folders/28/_tsmhg4172s_wy7vswfkzq9h0000gn/T/arduino_cache_261188/core/core_33a28a35d5be94a4487e04df0719a759.a(usb_serial.cpp.o)
USBSerial::operator bool()                        /var/folders/28/_tsmhg4172s_wy7vswfkzq9h0000gn/T/arduino_cache_261188/core/core_33a28a35d5be94a4487e04df0719a759.a(usb_serial.cpp.o)
USBSerial::peek()                                 /var/folders/28/_tsmhg4172s_wy7vswfkzq9h0000gn/T/arduino_cache_261188/core/core_33a28a35d5be94a4487e04df0719a759.a(usb_serial.cpp.o)
USBSerial::pending()                              /var/folders/28/_tsmhg4172s_wy7vswfkzq9h0000gn/T/arduino_cache_261188/core/core_33a28a35d5be94a4487e04df0719a759.a(usb_serial.cpp.o)
USBSerial::read()                                 /var/folders/28/_tsmhg4172s_wy7vswfkzq9h0000gn/T/arduino_cache_261188/core/core_33a28a35d5be94a4487e04df0719a759.a(usb_serial.cpp.o)
USBSerial::read(unsigned char*, unsigned long)    /var/folders/28/_tsmhg4172s_wy7vswfkzq9h0000gn/T/arduino_cache_261188/core/core_33a28a35d5be94a4487e04df0719a759.a(usb_serial.cpp.o)
USBSerial::readBytes(char*, unsigned int const&)  /var/folders/28/_tsmhg4172s_wy7vswfkzq9h0000gn/T/arduino_cache_261188/core/core_33a28a35d5be94a4487e04df0719a759.a(usb_serial.cpp.o)
USBSerial::write(char const*)                     /var/folders/28/_tsmhg4172s_wy7vswfkzq9h0000gn/T/arduino_cache_261188/core/core_33a28a35d5be94a4487e04df0719a759.a(usb_serial.cpp.o)
USBSerial::write(unsigned char const*, unsigned long) /var/folders/28/_tsmhg4172s_wy7vswfkzq9h0000gn/T/arduino_cache_261188/core/core_33a28a35d5be94a4487e04df0719a759.a(usb_serial.cpp.o)
USBSerial::write(unsigned char)                   /var/folders/28/_tsmhg4172s_wy7vswfkzq9h0000gn/T/arduino_cache_261188/core/core_33a28a35d5be94a4487e04df0719a759.a(usb_serial.cpp.o)
USB_Init                                          /var/folders/28/_tsmhg4172s_wy7vswfkzq9h0000gn/T/arduino_cache_261188/core/core_33a28a35d5be94a4487e04df0719a759.a(usb_init.c.o)
UserToPMABufferCopy                               /var/folders/28/_tsmhg4172s_wy7vswfkzq9h0000gn/T/arduino_cache_261188/core/core_33a28a35d5be94a4487e04df0719a759.a(usb_mem.c.o)
                                                  /var/folders/28/_tsmhg4172s_wy7vswfkzq9h0000gn/T/arduino_cache_261188/core/core_33a28a35d5be94a4487e04df0719a759.a(usb_core.c.o)
User_Standard_Requests                            /var/folders/28/_tsmhg4172s_wy7vswfkzq9h0000gn/T/arduino_cache_261188/core/core_33a28a35d5be94a4487e04df0719a759.a(usb_cdcacm.c.o)
                                                  /var/folders/28/_tsmhg4172s_wy7vswfkzq9h0000gn/T/arduino_cache_261188/core/core_33a28a35d5be94a4487e04df0719a759.a(usb_init.c.o)
                                                  /var/folders/28/_tsmhg4172s_wy7vswfkzq9h0000gn/T/arduino_cache_261188/core/core_33a28a35d5be94a4487e04df0719a759.a(usb.c.o)
_Jv_RegisterClasses                               /Users/paulgallagher/Library/Arduino15/packages/arduino/tools/arm-none-eabi-gcc/4.8.3-2014q1/bin/../lib/gcc/arm-none-eabi/4.8.3/armv7-m/crtbegin.o
__adddf3                                          /Users/paulgallagher/Library/Arduino15/packages/arduino/tools/arm-none-eabi-gcc/4.8.3-2014q1/bin/../lib/gcc/arm-none-eabi/4.8.3/armv7-m/libgcc.a(_arm_addsubdf3.o)
__aeabi_cdcmpeq                                   /Users/paulgallagher/Library/Arduino15/packages/arduino/tools/arm-none-eabi-gcc/4.8.3-2014q1/bin/../lib/gcc/arm-none-eabi/4.8.3/armv7-m/libgcc.a(_arm_cmpdf2.o)
__aeabi_cdcmple                                   /Users/paulgallagher/Library/Arduino15/packages/arduino/tools/arm-none-eabi-gcc/4.8.3-2014q1/bin/../lib/gcc/arm-none-eabi/4.8.3/armv7-m/libgcc.a(_arm_cmpdf2.o)
__aeabi_cdrcmple                                  /Users/paulgallagher/Library/Arduino15/packages/arduino/tools/arm-none-eabi-gcc/4.8.3-2014q1/bin/../lib/gcc/arm-none-eabi/4.8.3/armv7-m/libgcc.a(_arm_cmpdf2.o)
__aeabi_d2iz                                      /Users/paulgallagher/Library/Arduino15/packages/arduino/tools/arm-none-eabi-gcc/4.8.3-2014q1/bin/../lib/gcc/arm-none-eabi/4.8.3/armv7-m/libgcc.a(_arm_fixdfsi.o)
                                                  /var/folders/28/_tsmhg4172s_wy7vswfkzq9h0000gn/T/arduino_cache_261188/core/core_33a28a35d5be94a4487e04df0719a759.a(Print.cpp.o)
__aeabi_d2lz                                      /Users/paulgallagher/Library/Arduino15/packages/arduino/tools/arm-none-eabi-gcc/4.8.3-2014q1/bin/../lib/gcc/arm-none-eabi/4.8.3/armv7-m/libgcc.a(_fixdfdi.o)
                                                  /var/folders/28/_tsmhg4172s_wy7vswfkzq9h0000gn/T/arduino_cache_261188/core/core_33a28a35d5be94a4487e04df0719a759.a(Print.cpp.o)
__aeabi_d2uiz                                     /Users/paulgallagher/Library/Arduino15/packages/arduino/tools/arm-none-eabi-gcc/4.8.3-2014q1/bin/../lib/gcc/arm-none-eabi/4.8.3/armv7-m/libgcc.a(_arm_fixunsdfsi.o)
                                                  /Users/paulgallagher/Library/Arduino15/packages/arduino/tools/arm-none-eabi-gcc/4.8.3-2014q1/bin/../lib/gcc/arm-none-eabi/4.8.3/armv7-m/libgcc.a(_fixunsdfdi.o)
__aeabi_d2ulz                                     /Users/paulgallagher/Library/Arduino15/packages/arduino/tools/arm-none-eabi-gcc/4.8.3-2014q1/bin/../lib/gcc/arm-none-eabi/4.8.3/armv7-m/libgcc.a(_fixunsdfdi.o)
                                                  /Users/paulgallagher/Library/Arduino15/packages/arduino/tools/arm-none-eabi-gcc/4.8.3-2014q1/bin/../lib/gcc/arm-none-eabi/4.8.3/armv7-m/libgcc.a(_fixdfdi.o)
__aeabi_dadd                                      /Users/paulgallagher/Library/Arduino15/packages/arduino/tools/arm-none-eabi-gcc/4.8.3-2014q1/bin/../lib/gcc/arm-none-eabi/4.8.3/armv7-m/libgcc.a(_arm_addsubdf3.o)
                                                  /var/folders/28/_tsmhg4172s_wy7vswfkzq9h0000gn/T/arduino_cache_261188/core/core_33a28a35d5be94a4487e04df0719a759.a(Print.cpp.o)
__aeabi_dcmpeq                                    /Users/paulgallagher/Library/Arduino15/packages/arduino/tools/arm-none-eabi-gcc/4.8.3-2014q1/bin/../lib/gcc/arm-none-eabi/4.8.3/armv7-m/libgcc.a(_arm_cmpdf2.o)
__aeabi_dcmpge                                    /Users/paulgallagher/Library/Arduino15/packages/arduino/tools/arm-none-eabi-gcc/4.8.3-2014q1/bin/../lib/gcc/arm-none-eabi/4.8.3/armv7-m/libgcc.a(_arm_cmpdf2.o)
                                                  /var/folders/28/_tsmhg4172s_wy7vswfkzq9h0000gn/T/arduino_cache_261188/core/core_33a28a35d5be94a4487e04df0719a759.a(Print.cpp.o)
__aeabi_dcmpgt                                    /Users/paulgallagher/Library/Arduino15/packages/arduino/tools/arm-none-eabi-gcc/4.8.3-2014q1/bin/../lib/gcc/arm-none-eabi/4.8.3/armv7-m/libgcc.a(_arm_cmpdf2.o)
                                                  /var/folders/28/_tsmhg4172s_wy7vswfkzq9h0000gn/T/arduino_cache_261188/core/core_33a28a35d5be94a4487e04df0719a759.a(Print.cpp.o)
__aeabi_dcmple                                    /Users/paulgallagher/Library/Arduino15/packages/arduino/tools/arm-none-eabi-gcc/4.8.3-2014q1/bin/../lib/gcc/arm-none-eabi/4.8.3/armv7-m/libgcc.a(_arm_cmpdf2.o)
                                                  /var/folders/28/_tsmhg4172s_wy7vswfkzq9h0000gn/T/arduino_cache_261188/core/core_33a28a35d5be94a4487e04df0719a759.a(Print.cpp.o)
__aeabi_dcmplt                                    /Users/paulgallagher/Library/Arduino15/packages/arduino/tools/arm-none-eabi-gcc/4.8.3-2014q1/bin/../lib/gcc/arm-none-eabi/4.8.3/armv7-m/libgcc.a(_arm_cmpdf2.o)
                                                  /Users/paulgallagher/Library/Arduino15/packages/arduino/tools/arm-none-eabi-gcc/4.8.3-2014q1/bin/../lib/gcc/arm-none-eabi/4.8.3/armv7-m/libgcc.a(_fixdfdi.o)
                                                  /var/folders/28/_tsmhg4172s_wy7vswfkzq9h0000gn/T/arduino_cache_261188/core/core_33a28a35d5be94a4487e04df0719a759.a(Print.cpp.o)
__aeabi_ddiv                                      /Users/paulgallagher/Library/Arduino15/packages/arduino/tools/arm-none-eabi-gcc/4.8.3-2014q1/bin/../lib/gcc/arm-none-eabi/4.8.3/armv7-m/libgcc.a(_arm_muldivdf3.o)
                                                  /var/folders/28/_tsmhg4172s_wy7vswfkzq9h0000gn/T/arduino_cache_261188/core/core_33a28a35d5be94a4487e04df0719a759.a(Print.cpp.o)
__aeabi_dmul                                      /Users/paulgallagher/Library/Arduino15/packages/arduino/tools/arm-none-eabi-gcc/4.8.3-2014q1/bin/../lib/gcc/arm-none-eabi/4.8.3/armv7-m/libgcc.a(_arm_muldivdf3.o)
                                                  /Users/paulgallagher/Library/Arduino15/packages/arduino/tools/arm-none-eabi-gcc/4.8.3-2014q1/bin/../lib/gcc/arm-none-eabi/4.8.3/armv7-m/libgcc.a(_fixunsdfdi.o)
                                                  /var/folders/28/_tsmhg4172s_wy7vswfkzq9h0000gn/T/arduino_cache_261188/core/core_33a28a35d5be94a4487e04df0719a759.a(Print.cpp.o)
__aeabi_drsub                                     /Users/paulgallagher/Library/Arduino15/packages/arduino/tools/arm-none-eabi-gcc/4.8.3-2014q1/bin/../lib/gcc/arm-none-eabi/4.8.3/armv7-m/libgcc.a(_arm_addsubdf3.o)
__aeabi_dsub                                      /Users/paulgallagher/Library/Arduino15/packages/arduino/tools/arm-none-eabi-gcc/4.8.3-2014q1/bin/../lib/gcc/arm-none-eabi/4.8.3/armv7-m/libgcc.a(_arm_addsubdf3.o)
                                                  /Users/paulgallagher/Library/Arduino15/packages/arduino/tools/arm-none-eabi-gcc/4.8.3-2014q1/bin/../lib/gcc/arm-none-eabi/4.8.3/armv7-m/libgcc.a(_fixunsdfdi.o)
                                                  /var/folders/28/_tsmhg4172s_wy7vswfkzq9h0000gn/T/arduino_cache_261188/core/core_33a28a35d5be94a4487e04df0719a759.a(Print.cpp.o)
__aeabi_f2d                                       /Users/paulgallagher/Library/Arduino15/packages/arduino/tools/arm-none-eabi-gcc/4.8.3-2014q1/bin/../lib/gcc/arm-none-eabi/4.8.3/armv7-m/libgcc.a(_arm_addsubdf3.o)
__aeabi_i2d                                       /Users/paulgallagher/Library/Arduino15/packages/arduino/tools/arm-none-eabi-gcc/4.8.3-2014q1/bin/../lib/gcc/arm-none-eabi/4.8.3/armv7-m/libgcc.a(_arm_addsubdf3.o)
                                                  /var/folders/28/_tsmhg4172s_wy7vswfkzq9h0000gn/T/arduino_cache_261188/core/core_33a28a35d5be94a4487e04df0719a759.a(Print.cpp.o)
__aeabi_idiv0                                     /Users/paulgallagher/Library/Arduino15/packages/arduino/tools/arm-none-eabi-gcc/4.8.3-2014q1/bin/../lib/gcc/arm-none-eabi/4.8.3/armv7-m/libgcc.a(_dvmd_tls.o)
__aeabi_l2d                                       /Users/paulgallagher/Library/Arduino15/packages/arduino/tools/arm-none-eabi-gcc/4.8.3-2014q1/bin/../lib/gcc/arm-none-eabi/4.8.3/armv7-m/libgcc.a(_arm_addsubdf3.o)
                                                  /var/folders/28/_tsmhg4172s_wy7vswfkzq9h0000gn/T/arduino_cache_261188/core/core_33a28a35d5be94a4487e04df0719a759.a(Print.cpp.o)
__aeabi_ldiv0                                     /Users/paulgallagher/Library/Arduino15/packages/arduino/tools/arm-none-eabi-gcc/4.8.3-2014q1/bin/../lib/gcc/arm-none-eabi/4.8.3/armv7-m/libgcc.a(_dvmd_tls.o)
                                                  /Users/paulgallagher/Library/Arduino15/packages/arduino/tools/arm-none-eabi-gcc/4.8.3-2014q1/bin/../lib/gcc/arm-none-eabi/4.8.3/armv7-m/libgcc.a(_aeabi_uldivmod.o)
__aeabi_ui2d                                      /Users/paulgallagher/Library/Arduino15/packages/arduino/tools/arm-none-eabi-gcc/4.8.3-2014q1/bin/../lib/gcc/arm-none-eabi/4.8.3/armv7-m/libgcc.a(_arm_addsubdf3.o)
                                                  /Users/paulgallagher/Library/Arduino15/packages/arduino/tools/arm-none-eabi-gcc/4.8.3-2014q1/bin/../lib/gcc/arm-none-eabi/4.8.3/armv7-m/libgcc.a(_fixunsdfdi.o)
__aeabi_ul2d                                      /Users/paulgallagher/Library/Arduino15/packages/arduino/tools/arm-none-eabi-gcc/4.8.3-2014q1/bin/../lib/gcc/arm-none-eabi/4.8.3/armv7-m/libgcc.a(_arm_addsubdf3.o)
__aeabi_uldivmod                                  /Users/paulgallagher/Library/Arduino15/packages/arduino/tools/arm-none-eabi-gcc/4.8.3-2014q1/bin/../lib/gcc/arm-none-eabi/4.8.3/armv7-m/libgcc.a(_aeabi_uldivmod.o)
                                                  /var/folders/28/_tsmhg4172s_wy7vswfkzq9h0000gn/T/arduino_cache_261188/core/core_33a28a35d5be94a4487e04df0719a759.a(Print.cpp.o)
__assert_func                                     /var/folders/28/_tsmhg4172s_wy7vswfkzq9h0000gn/T/arduino_cache_261188/core/core_33a28a35d5be94a4487e04df0719a759.a(util.c.o)
__bss_end__                                       /var/folders/28/_tsmhg4172s_wy7vswfkzq9h0000gn/T/arduino_build_279421/core/wirish/start_c.c.o
                                                  /Users/paulgallagher/Library/Arduino15/packages/arduino/tools/arm-none-eabi-gcc/4.8.3-2014q1/bin/../lib/gcc/arm-none-eabi/4.8.3/../../../../arm-none-eabi/lib/armv7-m/crt0.o
__bss_start__                                     /var/folders/28/_tsmhg4172s_wy7vswfkzq9h0000gn/T/arduino_build_279421/core/wirish/start_c.c.o
                                                  /Users/paulgallagher/Library/Arduino15/packages/arduino/tools/arm-none-eabi-gcc/4.8.3-2014q1/bin/../lib/gcc/arm-none-eabi/4.8.3/../../../../arm-none-eabi/lib/armv7-m/crt0.o
__call_exitprocs                                  /Users/paulgallagher/Library/Arduino15/packages/arduino/tools/arm-none-eabi-gcc/4.8.3-2014q1/bin/../lib/gcc/arm-none-eabi/4.8.3/../../../../arm-none-eabi/lib/armv7-m/libc.a(lib_a-__call_atexit.o)
                                                  /Users/paulgallagher/Library/Arduino15/packages/arduino/tools/arm-none-eabi-gcc/4.8.3-2014q1/bin/../lib/gcc/arm-none-eabi/4.8.3/../../../../arm-none-eabi/lib/armv7-m/libc.a(lib_a-exit.o)
__cmpdf2                                          /Users/paulgallagher/Library/Arduino15/packages/arduino/tools/arm-none-eabi-gcc/4.8.3-2014q1/bin/../lib/gcc/arm-none-eabi/4.8.3/armv7-m/libgcc.a(_arm_cmpdf2.o)
__cxa_pure_virtual                                /var/folders/28/_tsmhg4172s_wy7vswfkzq9h0000gn/T/arduino_cache_261188/core/core_33a28a35d5be94a4487e04df0719a759.a(cxxabi-compat.cpp.o)
                                                  /var/folders/28/_tsmhg4172s_wy7vswfkzq9h0000gn/T/arduino_cache_261188/core/core_33a28a35d5be94a4487e04df0719a759.a(usb_serial.cpp.o)
                                                  /var/folders/28/_tsmhg4172s_wy7vswfkzq9h0000gn/T/arduino_cache_261188/core/core_33a28a35d5be94a4487e04df0719a759.a(Print.cpp.o)
                                                  /var/folders/28/_tsmhg4172s_wy7vswfkzq9h0000gn/T/arduino_cache_261188/core/core_33a28a35d5be94a4487e04df0719a759.a(HardwareSerial.cpp.o)
__data_end__                                      /var/folders/28/_tsmhg4172s_wy7vswfkzq9h0000gn/T/arduino_build_279421/core/wirish/start_c.c.o
__data_start__                                    /var/folders/28/_tsmhg4172s_wy7vswfkzq9h0000gn/T/arduino_build_279421/core/wirish/start_c.c.o
__default_handler                                 /var/folders/28/_tsmhg4172s_wy7vswfkzq9h0000gn/T/arduino_cache_261188/core/core_33a28a35d5be94a4487e04df0719a759.a(isrs.S.o)
__deregister_frame_info                           /Users/paulgallagher/Library/Arduino15/packages/arduino/tools/arm-none-eabi-gcc/4.8.3-2014q1/bin/../lib/gcc/arm-none-eabi/4.8.3/armv7-m/crtbegin.o
__divdf3                                          /Users/paulgallagher/Library/Arduino15/packages/arduino/tools/arm-none-eabi-gcc/4.8.3-2014q1/bin/../lib/gcc/arm-none-eabi/4.8.3/armv7-m/libgcc.a(_arm_muldivdf3.o)
__divdi3                                          /Users/paulgallagher/Library/Arduino15/packages/arduino/tools/arm-none-eabi-gcc/4.8.3-2014q1/bin/../lib/gcc/arm-none-eabi/4.8.3/armv7-m/libgcc.a(_divdi3.o)
                                                  /Users/paulgallagher/Library/Arduino15/packages/arduino/tools/arm-none-eabi-gcc/4.8.3-2014q1/bin/../lib/gcc/arm-none-eabi/4.8.3/armv7-m/libgcc.a(bpabi.o)
__dso_handle                                      /Users/paulgallagher/Library/Arduino15/packages/arduino/tools/arm-none-eabi-gcc/4.8.3-2014q1/bin/../lib/gcc/arm-none-eabi/4.8.3/armv7-m/crtbegin.o
__eqdf2                                           /Users/paulgallagher/Library/Arduino15/packages/arduino/tools/arm-none-eabi-gcc/4.8.3-2014q1/bin/../lib/gcc/arm-none-eabi/4.8.3/armv7-m/libgcc.a(_arm_cmpdf2.o)
__errno                                           /Users/paulgallagher/Library/Arduino15/packages/arduino/tools/arm-none-eabi-gcc/4.8.3-2014q1/bin/../lib/gcc/arm-none-eabi/4.8.3/../../../../arm-none-eabi/lib/armv7-m/libc.a(lib_a-errno.o)
                                                  /var/folders/28/_tsmhg4172s_wy7vswfkzq9h0000gn/T/arduino_build_279421/core/wirish/syscalls.c.o
__error                                           /var/folders/28/_tsmhg4172s_wy7vswfkzq9h0000gn/T/arduino_cache_261188/core/core_33a28a35d5be94a4487e04df0719a759.a(util.c.o)
                                                  /var/folders/28/_tsmhg4172s_wy7vswfkzq9h0000gn/T/arduino_cache_261188/core/core_33a28a35d5be94a4487e04df0719a759.a(exc.S.o)
__exc_busfault                                    /var/folders/28/_tsmhg4172s_wy7vswfkzq9h0000gn/T/arduino_cache_261188/core/core_33a28a35d5be94a4487e04df0719a759.a(exc.S.o)
                                                  /var/folders/28/_tsmhg4172s_wy7vswfkzq9h0000gn/T/arduino_cache_261188/core/core_33a28a35d5be94a4487e04df0719a759.a(vector_table.S.o)
__exc_debug_monitor                               /var/folders/28/_tsmhg4172s_wy7vswfkzq9h0000gn/T/arduino_cache_261188/core/core_33a28a35d5be94a4487e04df0719a759.a(isrs.S.o)
                                                  /var/folders/28/_tsmhg4172s_wy7vswfkzq9h0000gn/T/arduino_cache_261188/core/core_33a28a35d5be94a4487e04df0719a759.a(vector_table.S.o)
__exc_hardfault                                   /var/folders/28/_tsmhg4172s_wy7vswfkzq9h0000gn/T/arduino_cache_261188/core/core_33a28a35d5be94a4487e04df0719a759.a(exc.S.o)
                                                  /var/folders/28/_tsmhg4172s_wy7vswfkzq9h0000gn/T/arduino_cache_261188/core/core_33a28a35d5be94a4487e04df0719a759.a(vector_table.S.o)
__exc_memmanage                                   /var/folders/28/_tsmhg4172s_wy7vswfkzq9h0000gn/T/arduino_cache_261188/core/core_33a28a35d5be94a4487e04df0719a759.a(exc.S.o)
                                                  /var/folders/28/_tsmhg4172s_wy7vswfkzq9h0000gn/T/arduino_cache_261188/core/core_33a28a35d5be94a4487e04df0719a759.a(vector_table.S.o)
__exc_nmi                                         /var/folders/28/_tsmhg4172s_wy7vswfkzq9h0000gn/T/arduino_cache_261188/core/core_33a28a35d5be94a4487e04df0719a759.a(exc.S.o)
                                                  /var/folders/28/_tsmhg4172s_wy7vswfkzq9h0000gn/T/arduino_cache_261188/core/core_33a28a35d5be94a4487e04df0719a759.a(vector_table.S.o)
__exc_pendsv                                      /var/folders/28/_tsmhg4172s_wy7vswfkzq9h0000gn/T/arduino_cache_261188/core/core_33a28a35d5be94a4487e04df0719a759.a(isrs.S.o)
                                                  /var/folders/28/_tsmhg4172s_wy7vswfkzq9h0000gn/T/arduino_cache_261188/core/core_33a28a35d5be94a4487e04df0719a759.a(vector_table.S.o)
__exc_reset                                       /var/folders/28/_tsmhg4172s_wy7vswfkzq9h0000gn/T/arduino_cache_261188/core/core_33a28a35d5be94a4487e04df0719a759.a(vector_table.S.o)
__exc_svc                                         /var/folders/28/_tsmhg4172s_wy7vswfkzq9h0000gn/T/arduino_cache_261188/core/core_33a28a35d5be94a4487e04df0719a759.a(isrs.S.o)
                                                  /var/folders/28/_tsmhg4172s_wy7vswfkzq9h0000gn/T/arduino_cache_261188/core/core_33a28a35d5be94a4487e04df0719a759.a(vector_table.S.o)
__exc_systick                                     /var/folders/28/_tsmhg4172s_wy7vswfkzq9h0000gn/T/arduino_cache_261188/core/core_33a28a35d5be94a4487e04df0719a759.a(systick.c.o)
                                                  /var/folders/28/_tsmhg4172s_wy7vswfkzq9h0000gn/T/arduino_cache_261188/core/core_33a28a35d5be94a4487e04df0719a759.a(vector_table.S.o)
__exc_usagefault                                  /var/folders/28/_tsmhg4172s_wy7vswfkzq9h0000gn/T/arduino_cache_261188/core/core_33a28a35d5be94a4487e04df0719a759.a(exc.S.o)
                                                  /var/folders/28/_tsmhg4172s_wy7vswfkzq9h0000gn/T/arduino_cache_261188/core/core_33a28a35d5be94a4487e04df0719a759.a(vector_table.S.o)
__extendsfdf2                                     /Users/paulgallagher/Library/Arduino15/packages/arduino/tools/arm-none-eabi-gcc/4.8.3-2014q1/bin/../lib/gcc/arm-none-eabi/4.8.3/armv7-m/libgcc.a(_arm_addsubdf3.o)
__fini_array_end                                  /Users/paulgallagher/Library/Arduino15/packages/arduino/tools/arm-none-eabi-gcc/4.8.3-2014q1/bin/../lib/gcc/arm-none-eabi/4.8.3/../../../../arm-none-eabi/lib/armv7-m/libc.a(lib_a-fini.o)
__fini_array_start                                /Users/paulgallagher/Library/Arduino15/packages/arduino/tools/arm-none-eabi-gcc/4.8.3-2014q1/bin/../lib/gcc/arm-none-eabi/4.8.3/../../../../arm-none-eabi/lib/armv7-m/libc.a(lib_a-fini.o)
__fixdfdi                                         /Users/paulgallagher/Library/Arduino15/packages/arduino/tools/arm-none-eabi-gcc/4.8.3-2014q1/bin/../lib/gcc/arm-none-eabi/4.8.3/armv7-m/libgcc.a(_fixdfdi.o)
__fixdfsi                                         /Users/paulgallagher/Library/Arduino15/packages/arduino/tools/arm-none-eabi-gcc/4.8.3-2014q1/bin/../lib/gcc/arm-none-eabi/4.8.3/armv7-m/libgcc.a(_arm_fixdfsi.o)
__fixunsdfdi                                      /Users/paulgallagher/Library/Arduino15/packages/arduino/tools/arm-none-eabi-gcc/4.8.3-2014q1/bin/../lib/gcc/arm-none-eabi/4.8.3/armv7-m/libgcc.a(_fixunsdfdi.o)
__fixunsdfsi                                      /Users/paulgallagher/Library/Arduino15/packages/arduino/tools/arm-none-eabi-gcc/4.8.3-2014q1/bin/../lib/gcc/arm-none-eabi/4.8.3/armv7-m/libgcc.a(_arm_fixunsdfsi.o)
__floatdidf                                       /Users/paulgallagher/Library/Arduino15/packages/arduino/tools/arm-none-eabi-gcc/4.8.3-2014q1/bin/../lib/gcc/arm-none-eabi/4.8.3/armv7-m/libgcc.a(_arm_addsubdf3.o)
__floatsidf                                       /Users/paulgallagher/Library/Arduino15/packages/arduino/tools/arm-none-eabi-gcc/4.8.3-2014q1/bin/../lib/gcc/arm-none-eabi/4.8.3/armv7-m/libgcc.a(_arm_addsubdf3.o)
__floatundidf                                     /Users/paulgallagher/Library/Arduino15/packages/arduino/tools/arm-none-eabi-gcc/4.8.3-2014q1/bin/../lib/gcc/arm-none-eabi/4.8.3/armv7-m/libgcc.a(_arm_addsubdf3.o)
__floatunsidf                                     /Users/paulgallagher/Library/Arduino15/packages/arduino/tools/arm-none-eabi-gcc/4.8.3-2014q1/bin/../lib/gcc/arm-none-eabi/4.8.3/armv7-m/libgcc.a(_arm_addsubdf3.o)
__gedf2                                           /Users/paulgallagher/Library/Arduino15/packages/arduino/tools/arm-none-eabi-gcc/4.8.3-2014q1/bin/../lib/gcc/arm-none-eabi/4.8.3/armv7-m/libgcc.a(_arm_cmpdf2.o)
__gnu_ldivmod_helper                              /Users/paulgallagher/Library/Arduino15/packages/arduino/tools/arm-none-eabi-gcc/4.8.3-2014q1/bin/../lib/gcc/arm-none-eabi/4.8.3/armv7-m/libgcc.a(bpabi.o)
__gnu_uldivmod_helper                             /Users/paulgallagher/Library/Arduino15/packages/arduino/tools/arm-none-eabi-gcc/4.8.3-2014q1/bin/../lib/gcc/arm-none-eabi/4.8.3/armv7-m/libgcc.a(bpabi.o)
                                                  /Users/paulgallagher/Library/Arduino15/packages/arduino/tools/arm-none-eabi-gcc/4.8.3-2014q1/bin/../lib/gcc/arm-none-eabi/4.8.3/armv7-m/libgcc.a(_aeabi_uldivmod.o)
__gtdf2                                           /Users/paulgallagher/Library/Arduino15/packages/arduino/tools/arm-none-eabi-gcc/4.8.3-2014q1/bin/../lib/gcc/arm-none-eabi/4.8.3/armv7-m/libgcc.a(_arm_cmpdf2.o)
__init_array_end                                  /Users/paulgallagher/Library/Arduino15/packages/arduino/tools/arm-none-eabi-gcc/4.8.3-2014q1/bin/../lib/gcc/arm-none-eabi/4.8.3/../../../../arm-none-eabi/lib/armv7-m/libc.a(lib_a-init.o)
__init_array_start                                /Users/paulgallagher/Library/Arduino15/packages/arduino/tools/arm-none-eabi-gcc/4.8.3-2014q1/bin/../lib/gcc/arm-none-eabi/4.8.3/../../../../arm-none-eabi/lib/armv7-m/libc.a(lib_a-init.o)
__irq_adc                                         /var/folders/28/_tsmhg4172s_wy7vswfkzq9h0000gn/T/arduino_cache_261188/core/core_33a28a35d5be94a4487e04df0719a759.a(adc_f1.c.o)
                                                  /var/folders/28/_tsmhg4172s_wy7vswfkzq9h0000gn/T/arduino_cache_261188/core/core_33a28a35d5be94a4487e04df0719a759.a(vector_table.S.o)
__irq_can_rx1                                     /var/folders/28/_tsmhg4172s_wy7vswfkzq9h0000gn/T/arduino_cache_261188/core/core_33a28a35d5be94a4487e04df0719a759.a(isrs.S.o)
                                                  /var/folders/28/_tsmhg4172s_wy7vswfkzq9h0000gn/T/arduino_cache_261188/core/core_33a28a35d5be94a4487e04df0719a759.a(vector_table.S.o)
__irq_can_sce                                     /var/folders/28/_tsmhg4172s_wy7vswfkzq9h0000gn/T/arduino_cache_261188/core/core_33a28a35d5be94a4487e04df0719a759.a(isrs.S.o)
                                                  /var/folders/28/_tsmhg4172s_wy7vswfkzq9h0000gn/T/arduino_cache_261188/core/core_33a28a35d5be94a4487e04df0719a759.a(vector_table.S.o)
__irq_dma1_channel1                               /var/folders/28/_tsmhg4172s_wy7vswfkzq9h0000gn/T/arduino_cache_261188/core/core_33a28a35d5be94a4487e04df0719a759.a(dma_f1.c.o)
                                                  /var/folders/28/_tsmhg4172s_wy7vswfkzq9h0000gn/T/arduino_cache_261188/core/core_33a28a35d5be94a4487e04df0719a759.a(vector_table.S.o)
__irq_dma1_channel2                               /var/folders/28/_tsmhg4172s_wy7vswfkzq9h0000gn/T/arduino_cache_261188/core/core_33a28a35d5be94a4487e04df0719a759.a(dma_f1.c.o)
                                                  /var/folders/28/_tsmhg4172s_wy7vswfkzq9h0000gn/T/arduino_cache_261188/core/core_33a28a35d5be94a4487e04df0719a759.a(vector_table.S.o)
__irq_dma1_channel3                               /var/folders/28/_tsmhg4172s_wy7vswfkzq9h0000gn/T/arduino_cache_261188/core/core_33a28a35d5be94a4487e04df0719a759.a(dma_f1.c.o)
                                                  /var/folders/28/_tsmhg4172s_wy7vswfkzq9h0000gn/T/arduino_cache_261188/core/core_33a28a35d5be94a4487e04df0719a759.a(vector_table.S.o)
__irq_dma1_channel4                               /var/folders/28/_tsmhg4172s_wy7vswfkzq9h0000gn/T/arduino_cache_261188/core/core_33a28a35d5be94a4487e04df0719a759.a(dma_f1.c.o)
                                                  /var/folders/28/_tsmhg4172s_wy7vswfkzq9h0000gn/T/arduino_cache_261188/core/core_33a28a35d5be94a4487e04df0719a759.a(vector_table.S.o)
__irq_dma1_channel5                               /var/folders/28/_tsmhg4172s_wy7vswfkzq9h0000gn/T/arduino_cache_261188/core/core_33a28a35d5be94a4487e04df0719a759.a(dma_f1.c.o)
                                                  /var/folders/28/_tsmhg4172s_wy7vswfkzq9h0000gn/T/arduino_cache_261188/core/core_33a28a35d5be94a4487e04df0719a759.a(vector_table.S.o)
__irq_dma1_channel6                               /var/folders/28/_tsmhg4172s_wy7vswfkzq9h0000gn/T/arduino_cache_261188/core/core_33a28a35d5be94a4487e04df0719a759.a(dma_f1.c.o)
                                                  /var/folders/28/_tsmhg4172s_wy7vswfkzq9h0000gn/T/arduino_cache_261188/core/core_33a28a35d5be94a4487e04df0719a759.a(vector_table.S.o)
__irq_dma1_channel7                               /var/folders/28/_tsmhg4172s_wy7vswfkzq9h0000gn/T/arduino_cache_261188/core/core_33a28a35d5be94a4487e04df0719a759.a(dma_f1.c.o)
                                                  /var/folders/28/_tsmhg4172s_wy7vswfkzq9h0000gn/T/arduino_cache_261188/core/core_33a28a35d5be94a4487e04df0719a759.a(vector_table.S.o)
__irq_exti0                                       /var/folders/28/_tsmhg4172s_wy7vswfkzq9h0000gn/T/arduino_cache_261188/core/core_33a28a35d5be94a4487e04df0719a759.a(exti.c.o)
                                                  /var/folders/28/_tsmhg4172s_wy7vswfkzq9h0000gn/T/arduino_cache_261188/core/core_33a28a35d5be94a4487e04df0719a759.a(vector_table.S.o)
__irq_exti1                                       /var/folders/28/_tsmhg4172s_wy7vswfkzq9h0000gn/T/arduino_cache_261188/core/core_33a28a35d5be94a4487e04df0719a759.a(exti.c.o)
                                                  /var/folders/28/_tsmhg4172s_wy7vswfkzq9h0000gn/T/arduino_cache_261188/core/core_33a28a35d5be94a4487e04df0719a759.a(vector_table.S.o)
__irq_exti15_10                                   /var/folders/28/_tsmhg4172s_wy7vswfkzq9h0000gn/T/arduino_cache_261188/core/core_33a28a35d5be94a4487e04df0719a759.a(exti.c.o)
                                                  /var/folders/28/_tsmhg4172s_wy7vswfkzq9h0000gn/T/arduino_cache_261188/core/core_33a28a35d5be94a4487e04df0719a759.a(vector_table.S.o)
__irq_exti2                                       /var/folders/28/_tsmhg4172s_wy7vswfkzq9h0000gn/T/arduino_cache_261188/core/core_33a28a35d5be94a4487e04df0719a759.a(exti.c.o)
                                                  /var/folders/28/_tsmhg4172s_wy7vswfkzq9h0000gn/T/arduino_cache_261188/core/core_33a28a35d5be94a4487e04df0719a759.a(vector_table.S.o)
__irq_exti3                                       /var/folders/28/_tsmhg4172s_wy7vswfkzq9h0000gn/T/arduino_cache_261188/core/core_33a28a35d5be94a4487e04df0719a759.a(exti.c.o)
                                                  /var/folders/28/_tsmhg4172s_wy7vswfkzq9h0000gn/T/arduino_cache_261188/core/core_33a28a35d5be94a4487e04df0719a759.a(vector_table.S.o)
__irq_exti4                                       /var/folders/28/_tsmhg4172s_wy7vswfkzq9h0000gn/T/arduino_cache_261188/core/core_33a28a35d5be94a4487e04df0719a759.a(exti.c.o)
                                                  /var/folders/28/_tsmhg4172s_wy7vswfkzq9h0000gn/T/arduino_cache_261188/core/core_33a28a35d5be94a4487e04df0719a759.a(vector_table.S.o)
__irq_exti9_5                                     /var/folders/28/_tsmhg4172s_wy7vswfkzq9h0000gn/T/arduino_cache_261188/core/core_33a28a35d5be94a4487e04df0719a759.a(exti.c.o)
                                                  /var/folders/28/_tsmhg4172s_wy7vswfkzq9h0000gn/T/arduino_cache_261188/core/core_33a28a35d5be94a4487e04df0719a759.a(vector_table.S.o)
__irq_flash                                       /var/folders/28/_tsmhg4172s_wy7vswfkzq9h0000gn/T/arduino_cache_261188/core/core_33a28a35d5be94a4487e04df0719a759.a(isrs.S.o)
                                                  /var/folders/28/_tsmhg4172s_wy7vswfkzq9h0000gn/T/arduino_cache_261188/core/core_33a28a35d5be94a4487e04df0719a759.a(vector_table.S.o)
__irq_i2c1_er                                     /var/folders/28/_tsmhg4172s_wy7vswfkzq9h0000gn/T/arduino_cache_261188/core/core_33a28a35d5be94a4487e04df0719a759.a(i2c_f1.c.o)
                                                  /var/folders/28/_tsmhg4172s_wy7vswfkzq9h0000gn/T/arduino_cache_261188/core/core_33a28a35d5be94a4487e04df0719a759.a(vector_table.S.o)
__irq_i2c1_ev                                     /var/folders/28/_tsmhg4172s_wy7vswfkzq9h0000gn/T/arduino_cache_261188/core/core_33a28a35d5be94a4487e04df0719a759.a(i2c_f1.c.o)
                                                  /var/folders/28/_tsmhg4172s_wy7vswfkzq9h0000gn/T/arduino_cache_261188/core/core_33a28a35d5be94a4487e04df0719a759.a(vector_table.S.o)
__irq_i2c2_er                                     /var/folders/28/_tsmhg4172s_wy7vswfkzq9h0000gn/T/arduino_cache_261188/core/core_33a28a35d5be94a4487e04df0719a759.a(i2c_f1.c.o)
                                                  /var/folders/28/_tsmhg4172s_wy7vswfkzq9h0000gn/T/arduino_cache_261188/core/core_33a28a35d5be94a4487e04df0719a759.a(vector_table.S.o)
__irq_i2c2_ev                                     /var/folders/28/_tsmhg4172s_wy7vswfkzq9h0000gn/T/arduino_cache_261188/core/core_33a28a35d5be94a4487e04df0719a759.a(i2c_f1.c.o)
                                                  /var/folders/28/_tsmhg4172s_wy7vswfkzq9h0000gn/T/arduino_cache_261188/core/core_33a28a35d5be94a4487e04df0719a759.a(vector_table.S.o)
__irq_pvd                                         /var/folders/28/_tsmhg4172s_wy7vswfkzq9h0000gn/T/arduino_cache_261188/core/core_33a28a35d5be94a4487e04df0719a759.a(isrs.S.o)
                                                  /var/folders/28/_tsmhg4172s_wy7vswfkzq9h0000gn/T/arduino_cache_261188/core/core_33a28a35d5be94a4487e04df0719a759.a(vector_table.S.o)
__irq_rcc                                         /var/folders/28/_tsmhg4172s_wy7vswfkzq9h0000gn/T/arduino_cache_261188/core/core_33a28a35d5be94a4487e04df0719a759.a(isrs.S.o)
                                                  /var/folders/28/_tsmhg4172s_wy7vswfkzq9h0000gn/T/arduino_cache_261188/core/core_33a28a35d5be94a4487e04df0719a759.a(vector_table.S.o)
__irq_rtc                                         /var/folders/28/_tsmhg4172s_wy7vswfkzq9h0000gn/T/arduino_cache_261188/core/core_33a28a35d5be94a4487e04df0719a759.a(isrs.S.o)
                                                  /var/folders/28/_tsmhg4172s_wy7vswfkzq9h0000gn/T/arduino_cache_261188/core/core_33a28a35d5be94a4487e04df0719a759.a(vector_table.S.o)
__irq_rtcalarm                                    /var/folders/28/_tsmhg4172s_wy7vswfkzq9h0000gn/T/arduino_cache_261188/core/core_33a28a35d5be94a4487e04df0719a759.a(isrs.S.o)
                                                  /var/folders/28/_tsmhg4172s_wy7vswfkzq9h0000gn/T/arduino_cache_261188/core/core_33a28a35d5be94a4487e04df0719a759.a(vector_table.S.o)
__irq_spi1                                        /var/folders/28/_tsmhg4172s_wy7vswfkzq9h0000gn/T/arduino_cache_261188/core/core_33a28a35d5be94a4487e04df0719a759.a(isrs.S.o)
                                                  /var/folders/28/_tsmhg4172s_wy7vswfkzq9h0000gn/T/arduino_cache_261188/core/core_33a28a35d5be94a4487e04df0719a759.a(vector_table.S.o)
__irq_spi2                                        /var/folders/28/_tsmhg4172s_wy7vswfkzq9h0000gn/T/arduino_cache_261188/core/core_33a28a35d5be94a4487e04df0719a759.a(isrs.S.o)
                                                  /var/folders/28/_tsmhg4172s_wy7vswfkzq9h0000gn/T/arduino_cache_261188/core/core_33a28a35d5be94a4487e04df0719a759.a(vector_table.S.o)
__irq_tamper                                      /var/folders/28/_tsmhg4172s_wy7vswfkzq9h0000gn/T/arduino_cache_261188/core/core_33a28a35d5be94a4487e04df0719a759.a(isrs.S.o)
                                                  /var/folders/28/_tsmhg4172s_wy7vswfkzq9h0000gn/T/arduino_cache_261188/core/core_33a28a35d5be94a4487e04df0719a759.a(vector_table.S.o)
__irq_tim1_brk                                    /var/folders/28/_tsmhg4172s_wy7vswfkzq9h0000gn/T/arduino_cache_261188/core/core_33a28a35d5be94a4487e04df0719a759.a(timer.c.o)
                                                  /var/folders/28/_tsmhg4172s_wy7vswfkzq9h0000gn/T/arduino_cache_261188/core/core_33a28a35d5be94a4487e04df0719a759.a(vector_table.S.o)
__irq_tim1_cc                                     /var/folders/28/_tsmhg4172s_wy7vswfkzq9h0000gn/T/arduino_cache_261188/core/core_33a28a35d5be94a4487e04df0719a759.a(timer.c.o)
                                                  /var/folders/28/_tsmhg4172s_wy7vswfkzq9h0000gn/T/arduino_cache_261188/core/core_33a28a35d5be94a4487e04df0719a759.a(vector_table.S.o)
__irq_tim1_trg_com                                /var/folders/28/_tsmhg4172s_wy7vswfkzq9h0000gn/T/arduino_cache_261188/core/core_33a28a35d5be94a4487e04df0719a759.a(timer.c.o)
                                                  /var/folders/28/_tsmhg4172s_wy7vswfkzq9h0000gn/T/arduino_cache_261188/core/core_33a28a35d5be94a4487e04df0719a759.a(vector_table.S.o)
__irq_tim1_up                                     /var/folders/28/_tsmhg4172s_wy7vswfkzq9h0000gn/T/arduino_cache_261188/core/core_33a28a35d5be94a4487e04df0719a759.a(timer.c.o)
                                                  /var/folders/28/_tsmhg4172s_wy7vswfkzq9h0000gn/T/arduino_cache_261188/core/core_33a28a35d5be94a4487e04df0719a759.a(vector_table.S.o)
__irq_tim2                                        /var/folders/28/_tsmhg4172s_wy7vswfkzq9h0000gn/T/arduino_cache_261188/core/core_33a28a35d5be94a4487e04df0719a759.a(timer.c.o)
                                                  /var/folders/28/_tsmhg4172s_wy7vswfkzq9h0000gn/T/arduino_cache_261188/core/core_33a28a35d5be94a4487e04df0719a759.a(vector_table.S.o)
__irq_tim3                                        /var/folders/28/_tsmhg4172s_wy7vswfkzq9h0000gn/T/arduino_cache_261188/core/core_33a28a35d5be94a4487e04df0719a759.a(timer.c.o)
                                                  /var/folders/28/_tsmhg4172s_wy7vswfkzq9h0000gn/T/arduino_cache_261188/core/core_33a28a35d5be94a4487e04df0719a759.a(vector_table.S.o)
__irq_tim4                                        /var/folders/28/_tsmhg4172s_wy7vswfkzq9h0000gn/T/arduino_cache_261188/core/core_33a28a35d5be94a4487e04df0719a759.a(timer.c.o)
                                                  /var/folders/28/_tsmhg4172s_wy7vswfkzq9h0000gn/T/arduino_cache_261188/core/core_33a28a35d5be94a4487e04df0719a759.a(vector_table.S.o)
__irq_usart1                                      /var/folders/28/_tsmhg4172s_wy7vswfkzq9h0000gn/T/arduino_cache_261188/core/core_33a28a35d5be94a4487e04df0719a759.a(usart_f1.c.o)
                                                  /var/folders/28/_tsmhg4172s_wy7vswfkzq9h0000gn/T/arduino_cache_261188/core/core_33a28a35d5be94a4487e04df0719a759.a(vector_table.S.o)
__irq_usart2                                      /var/folders/28/_tsmhg4172s_wy7vswfkzq9h0000gn/T/arduino_cache_261188/core/core_33a28a35d5be94a4487e04df0719a759.a(usart_f1.c.o)
                                                  /var/folders/28/_tsmhg4172s_wy7vswfkzq9h0000gn/T/arduino_cache_261188/core/core_33a28a35d5be94a4487e04df0719a759.a(vector_table.S.o)
__irq_usart3                                      /var/folders/28/_tsmhg4172s_wy7vswfkzq9h0000gn/T/arduino_cache_261188/core/core_33a28a35d5be94a4487e04df0719a759.a(usart_f1.c.o)
                                                  /var/folders/28/_tsmhg4172s_wy7vswfkzq9h0000gn/T/arduino_cache_261188/core/core_33a28a35d5be94a4487e04df0719a759.a(vector_table.S.o)
__irq_usb_hp_can_tx                               /var/folders/28/_tsmhg4172s_wy7vswfkzq9h0000gn/T/arduino_cache_261188/core/core_33a28a35d5be94a4487e04df0719a759.a(isrs.S.o)
                                                  /var/folders/28/_tsmhg4172s_wy7vswfkzq9h0000gn/T/arduino_cache_261188/core/core_33a28a35d5be94a4487e04df0719a759.a(vector_table.S.o)
__irq_usb_lp_can_rx0                              /var/folders/28/_tsmhg4172s_wy7vswfkzq9h0000gn/T/arduino_cache_261188/core/core_33a28a35d5be94a4487e04df0719a759.a(usb.c.o)
                                                  /var/folders/28/_tsmhg4172s_wy7vswfkzq9h0000gn/T/arduino_cache_261188/core/core_33a28a35d5be94a4487e04df0719a759.a(vector_table.S.o)
__irq_usbwakeup                                   /var/folders/28/_tsmhg4172s_wy7vswfkzq9h0000gn/T/arduino_cache_261188/core/core_33a28a35d5be94a4487e04df0719a759.a(isrs.S.o)
                                                  /var/folders/28/_tsmhg4172s_wy7vswfkzq9h0000gn/T/arduino_cache_261188/core/core_33a28a35d5be94a4487e04df0719a759.a(vector_table.S.o)
__irq_wwdg                                        /var/folders/28/_tsmhg4172s_wy7vswfkzq9h0000gn/T/arduino_cache_261188/core/core_33a28a35d5be94a4487e04df0719a759.a(isrs.S.o)
                                                  /var/folders/28/_tsmhg4172s_wy7vswfkzq9h0000gn/T/arduino_cache_261188/core/core_33a28a35d5be94a4487e04df0719a759.a(vector_table.S.o)
__ledf2                                           /Users/paulgallagher/Library/Arduino15/packages/arduino/tools/arm-none-eabi-gcc/4.8.3-2014q1/bin/../lib/gcc/arm-none-eabi/4.8.3/armv7-m/libgcc.a(_arm_cmpdf2.o)
__libc_fini                                       /Users/paulgallagher/Library/Arduino15/packages/arduino/tools/arm-none-eabi-gcc/4.8.3-2014q1/bin/../lib/gcc/arm-none-eabi/4.8.3/../../../../arm-none-eabi/lib/armv7-m/libc.a(lib_a-__call_atexit.o)
__libc_fini_array                                 /Users/paulgallagher/Library/Arduino15/packages/arduino/tools/arm-none-eabi-gcc/4.8.3-2014q1/bin/../lib/gcc/arm-none-eabi/4.8.3/../../../../arm-none-eabi/lib/armv7-m/libc.a(lib_a-fini.o)
                                                  /Users/paulgallagher/Library/Arduino15/packages/arduino/tools/arm-none-eabi-gcc/4.8.3-2014q1/bin/../lib/gcc/arm-none-eabi/4.8.3/../../../../arm-none-eabi/lib/armv7-m/libc.a(lib_a-__call_atexit.o)
                                                  /Users/paulgallagher/Library/Arduino15/packages/arduino/tools/arm-none-eabi-gcc/4.8.3-2014q1/bin/../lib/gcc/arm-none-eabi/4.8.3/../../../../arm-none-eabi/lib/armv7-m/crt0.o
__libc_init_array                                 /Users/paulgallagher/Library/Arduino15/packages/arduino/tools/arm-none-eabi-gcc/4.8.3-2014q1/bin/../lib/gcc/arm-none-eabi/4.8.3/../../../../arm-none-eabi/lib/armv7-m/libc.a(lib_a-init.o)
                                                  /var/folders/28/_tsmhg4172s_wy7vswfkzq9h0000gn/T/arduino_build_279421/core/wirish/start_c.c.o
                                                  /Users/paulgallagher/Library/Arduino15/packages/arduino/tools/arm-none-eabi-gcc/4.8.3-2014q1/bin/../lib/gcc/arm-none-eabi/4.8.3/../../../../arm-none-eabi/lib/armv7-m/crt0.o
__lm_enable_error_usart                           /var/folders/28/_tsmhg4172s_wy7vswfkzq9h0000gn/T/arduino_cache_261188/core/core_33a28a35d5be94a4487e04df0719a759.a(util.c.o)
__lm_error                                        /var/folders/28/_tsmhg4172s_wy7vswfkzq9h0000gn/T/arduino_cache_261188/core/core_33a28a35d5be94a4487e04df0719a759.a(util.c.o)
__ltdf2                                           /Users/paulgallagher/Library/Arduino15/packages/arduino/tools/arm-none-eabi-gcc/4.8.3-2014q1/bin/../lib/gcc/arm-none-eabi/4.8.3/armv7-m/libgcc.a(_arm_cmpdf2.o)
__msp_init                                        /var/folders/28/_tsmhg4172s_wy7vswfkzq9h0000gn/T/arduino_cache_261188/core/core_33a28a35d5be94a4487e04df0719a759.a(vector_table.S.o)
                                                  /var/folders/28/_tsmhg4172s_wy7vswfkzq9h0000gn/T/arduino_build_279421/core/wirish/start.S.o
__muldf3                                          /Users/paulgallagher/Library/Arduino15/packages/arduino/tools/arm-none-eabi-gcc/4.8.3-2014q1/bin/../lib/gcc/arm-none-eabi/4.8.3/armv7-m/libgcc.a(_arm_muldivdf3.o)
__nedf2                                           /Users/paulgallagher/Library/Arduino15/packages/arduino/tools/arm-none-eabi-gcc/4.8.3-2014q1/bin/../lib/gcc/arm-none-eabi/4.8.3/armv7-m/libgcc.a(_arm_cmpdf2.o)
__preinit_array_end                               /Users/paulgallagher/Library/Arduino15/packages/arduino/tools/arm-none-eabi-gcc/4.8.3-2014q1/bin/../lib/gcc/arm-none-eabi/4.8.3/../../../../arm-none-eabi/lib/armv7-m/libc.a(lib_a-init.o)
__preinit_array_start                             /Users/paulgallagher/Library/Arduino15/packages/arduino/tools/arm-none-eabi-gcc/4.8.3-2014q1/bin/../lib/gcc/arm-none-eabi/4.8.3/../../../../arm-none-eabi/lib/armv7-m/libc.a(lib_a-init.o)
__register_exitproc                               /Users/paulgallagher/Library/Arduino15/packages/arduino/tools/arm-none-eabi-gcc/4.8.3-2014q1/bin/../lib/gcc/arm-none-eabi/4.8.3/../../../../arm-none-eabi/lib/armv7-m/libc.a(lib_a-__atexit.o)
                                                  /Users/paulgallagher/Library/Arduino15/packages/arduino/tools/arm-none-eabi-gcc/4.8.3-2014q1/bin/../lib/gcc/arm-none-eabi/4.8.3/../../../../arm-none-eabi/lib/armv7-m/libc.a(lib_a-atexit.o)
__register_frame_info                             /Users/paulgallagher/Library/Arduino15/packages/arduino/tools/arm-none-eabi-gcc/4.8.3-2014q1/bin/../lib/gcc/arm-none-eabi/4.8.3/armv7-m/crtbegin.o
__stack                                           /Users/paulgallagher/Library/Arduino15/packages/arduino/tools/arm-none-eabi-gcc/4.8.3-2014q1/bin/../lib/gcc/arm-none-eabi/4.8.3/../../../../arm-none-eabi/lib/armv7-m/crt0.o
__start__                                         /var/folders/28/_tsmhg4172s_wy7vswfkzq9h0000gn/T/arduino_build_279421/core/wirish/start.S.o
__stm32_vector_table                              /var/folders/28/_tsmhg4172s_wy7vswfkzq9h0000gn/T/arduino_cache_261188/core/core_33a28a35d5be94a4487e04df0719a759.a(vector_table.S.o)
__stm32reservedexception10                        /var/folders/28/_tsmhg4172s_wy7vswfkzq9h0000gn/T/arduino_cache_261188/core/core_33a28a35d5be94a4487e04df0719a759.a(isrs.S.o)
                                                  /var/folders/28/_tsmhg4172s_wy7vswfkzq9h0000gn/T/arduino_cache_261188/core/core_33a28a35d5be94a4487e04df0719a759.a(vector_table.S.o)
__stm32reservedexception13                        /var/folders/28/_tsmhg4172s_wy7vswfkzq9h0000gn/T/arduino_cache_261188/core/core_33a28a35d5be94a4487e04df0719a759.a(isrs.S.o)
                                                  /var/folders/28/_tsmhg4172s_wy7vswfkzq9h0000gn/T/arduino_cache_261188/core/core_33a28a35d5be94a4487e04df0719a759.a(vector_table.S.o)
__stm32reservedexception7                         /var/folders/28/_tsmhg4172s_wy7vswfkzq9h0000gn/T/arduino_cache_261188/core/core_33a28a35d5be94a4487e04df0719a759.a(isrs.S.o)
                                                  /var/folders/28/_tsmhg4172s_wy7vswfkzq9h0000gn/T/arduino_cache_261188/core/core_33a28a35d5be94a4487e04df0719a759.a(vector_table.S.o)
__stm32reservedexception8                         /var/folders/28/_tsmhg4172s_wy7vswfkzq9h0000gn/T/arduino_cache_261188/core/core_33a28a35d5be94a4487e04df0719a759.a(isrs.S.o)
                                                  /var/folders/28/_tsmhg4172s_wy7vswfkzq9h0000gn/T/arduino_cache_261188/core/core_33a28a35d5be94a4487e04df0719a759.a(vector_table.S.o)
__stm32reservedexception9                         /var/folders/28/_tsmhg4172s_wy7vswfkzq9h0000gn/T/arduino_cache_261188/core/core_33a28a35d5be94a4487e04df0719a759.a(isrs.S.o)
                                                  /var/folders/28/_tsmhg4172s_wy7vswfkzq9h0000gn/T/arduino_cache_261188/core/core_33a28a35d5be94a4487e04df0719a759.a(vector_table.S.o)
__subdf3                                          /Users/paulgallagher/Library/Arduino15/packages/arduino/tools/arm-none-eabi-gcc/4.8.3-2014q1/bin/../lib/gcc/arm-none-eabi/4.8.3/armv7-m/libgcc.a(_arm_addsubdf3.o)
__udivdi3                                         /Users/paulgallagher/Library/Arduino15/packages/arduino/tools/arm-none-eabi-gcc/4.8.3-2014q1/bin/../lib/gcc/arm-none-eabi/4.8.3/armv7-m/libgcc.a(_udivdi3.o)
                                                  /Users/paulgallagher/Library/Arduino15/packages/arduino/tools/arm-none-eabi-gcc/4.8.3-2014q1/bin/../lib/gcc/arm-none-eabi/4.8.3/armv7-m/libgcc.a(bpabi.o)
_close                                            /var/folders/28/_tsmhg4172s_wy7vswfkzq9h0000gn/T/arduino_build_279421/core/wirish/syscalls.c.o
_dma_addr_type                                    /var/folders/28/_tsmhg4172s_wy7vswfkzq9h0000gn/T/arduino_cache_261188/core/core_33a28a35d5be94a4487e04df0719a759.a(dma.c.o)
                                                  /var/folders/28/_tsmhg4172s_wy7vswfkzq9h0000gn/T/arduino_cache_261188/core/core_33a28a35d5be94a4487e04df0719a759.a(dma_f1.c.o)
_exit                                             /var/folders/28/_tsmhg4172s_wy7vswfkzq9h0000gn/T/arduino_build_279421/core/wirish/syscalls.c.o
                                                  /Users/paulgallagher/Library/Arduino15/packages/arduino/tools/arm-none-eabi-gcc/4.8.3-2014q1/bin/../lib/gcc/arm-none-eabi/4.8.3/../../../../arm-none-eabi/lib/armv7-m/libc.a(lib_a-exit.o)
_fail                                             /var/folders/28/_tsmhg4172s_wy7vswfkzq9h0000gn/T/arduino_cache_261188/core/core_33a28a35d5be94a4487e04df0719a759.a(util.c.o)
                                                  /var/folders/28/_tsmhg4172s_wy7vswfkzq9h0000gn/T/arduino_cache_261188/core/core_33a28a35d5be94a4487e04df0719a759.a(i2c.c.o)
                                                  /var/folders/28/_tsmhg4172s_wy7vswfkzq9h0000gn/T/arduino_cache_261188/core/core_33a28a35d5be94a4487e04df0719a759.a(dma.c.o)
                                                  /var/folders/28/_tsmhg4172s_wy7vswfkzq9h0000gn/T/arduino_cache_261188/core/core_33a28a35d5be94a4487e04df0719a759.a(bkp_f1.c.o)
                                                  /var/folders/28/_tsmhg4172s_wy7vswfkzq9h0000gn/T/arduino_cache_261188/core/core_33a28a35d5be94a4487e04df0719a759.a(usb_serial.cpp.o)
                                                  /var/folders/28/_tsmhg4172s_wy7vswfkzq9h0000gn/T/arduino_cache_261188/core/core_33a28a35d5be94a4487e04df0719a759.a(wirish_digital_f1.cpp.o)
                                                  /var/folders/28/_tsmhg4172s_wy7vswfkzq9h0000gn/T/arduino_cache_261188/core/core_33a28a35d5be94a4487e04df0719a759.a(usb.c.o)
                                                  /var/folders/28/_tsmhg4172s_wy7vswfkzq9h0000gn/T/arduino_cache_261188/core/core_33a28a35d5be94a4487e04df0719a759.a(usart_f1.c.o)
                                                  /var/folders/28/_tsmhg4172s_wy7vswfkzq9h0000gn/T/arduino_cache_261188/core/core_33a28a35d5be94a4487e04df0719a759.a(timer.c.o)
                                                  /var/folders/28/_tsmhg4172s_wy7vswfkzq9h0000gn/T/arduino_cache_261188/core/core_33a28a35d5be94a4487e04df0719a759.a(rcc_f1.c.o)
                                                  /var/folders/28/_tsmhg4172s_wy7vswfkzq9h0000gn/T/arduino_cache_261188/core/core_33a28a35d5be94a4487e04df0719a759.a(exti.c.o)
                                                  /var/folders/28/_tsmhg4172s_wy7vswfkzq9h0000gn/T/arduino_cache_261188/core/core_33a28a35d5be94a4487e04df0719a759.a(dma_f1.c.o)
_fini                                             /Users/paulgallagher/Library/Arduino15/packages/arduino/tools/arm-none-eabi-gcc/4.8.3-2014q1/bin/../lib/gcc/arm-none-eabi/4.8.3/armv7-m/crti.o
                                                  /Users/paulgallagher/Library/Arduino15/packages/arduino/tools/arm-none-eabi-gcc/4.8.3-2014q1/bin/../lib/gcc/arm-none-eabi/4.8.3/../../../../arm-none-eabi/lib/armv7-m/libc.a(lib_a-fini.o)
_fstat                                            /var/folders/28/_tsmhg4172s_wy7vswfkzq9h0000gn/T/arduino_build_279421/core/wirish/syscalls.c.o
_global_impure_ptr                                /Users/paulgallagher/Library/Arduino15/packages/arduino/tools/arm-none-eabi-gcc/4.8.3-2014q1/bin/../lib/gcc/arm-none-eabi/4.8.3/../../../../arm-none-eabi/lib/armv7-m/libc.a(lib_a-impure.o)
                                                  /Users/paulgallagher/Library/Arduino15/packages/arduino/tools/arm-none-eabi-gcc/4.8.3-2014q1/bin/../lib/gcc/arm-none-eabi/4.8.3/../../../../arm-none-eabi/lib/armv7-m/libc.a(lib_a-__atexit.o)
                                                  /Users/paulgallagher/Library/Arduino15/packages/arduino/tools/arm-none-eabi-gcc/4.8.3-2014q1/bin/../lib/gcc/arm-none-eabi/4.8.3/../../../../arm-none-eabi/lib/armv7-m/libc.a(lib_a-__call_atexit.o)
                                                  /Users/paulgallagher/Library/Arduino15/packages/arduino/tools/arm-none-eabi-gcc/4.8.3-2014q1/bin/../lib/gcc/arm-none-eabi/4.8.3/../../../../arm-none-eabi/lib/armv7-m/libc.a(lib_a-exit.o)
_i2c_irq_error_handler                            /var/folders/28/_tsmhg4172s_wy7vswfkzq9h0000gn/T/arduino_cache_261188/core/core_33a28a35d5be94a4487e04df0719a759.a(i2c.c.o)
                                                  /var/folders/28/_tsmhg4172s_wy7vswfkzq9h0000gn/T/arduino_cache_261188/core/core_33a28a35d5be94a4487e04df0719a759.a(i2c_f1.c.o)
_i2c_irq_handler                                  /var/folders/28/_tsmhg4172s_wy7vswfkzq9h0000gn/T/arduino_cache_261188/core/core_33a28a35d5be94a4487e04df0719a759.a(i2c.c.o)
                                                  /var/folders/28/_tsmhg4172s_wy7vswfkzq9h0000gn/T/arduino_cache_261188/core/core_33a28a35d5be94a4487e04df0719a759.a(i2c_f1.c.o)
_i2c_irq_priority_fixup                           /var/folders/28/_tsmhg4172s_wy7vswfkzq9h0000gn/T/arduino_cache_261188/core/core_33a28a35d5be94a4487e04df0719a759.a(i2c_f1.c.o)
                                                  /var/folders/28/_tsmhg4172s_wy7vswfkzq9h0000gn/T/arduino_cache_261188/core/core_33a28a35d5be94a4487e04df0719a759.a(i2c.c.o)
_impure_ptr                                       /Users/paulgallagher/Library/Arduino15/packages/arduino/tools/arm-none-eabi-gcc/4.8.3-2014q1/bin/../lib/gcc/arm-none-eabi/4.8.3/../../../../arm-none-eabi/lib/armv7-m/libc.a(lib_a-impure.o)
                                                  /Users/paulgallagher/Library/Arduino15/packages/arduino/tools/arm-none-eabi-gcc/4.8.3-2014q1/bin/../lib/gcc/arm-none-eabi/4.8.3/../../../../arm-none-eabi/lib/armv7-m/libc.a(lib_a-errno.o)
_init                                             /Users/paulgallagher/Library/Arduino15/packages/arduino/tools/arm-none-eabi-gcc/4.8.3-2014q1/bin/../lib/gcc/arm-none-eabi/4.8.3/armv7-m/crti.o
                                                  /Users/paulgallagher/Library/Arduino15/packages/arduino/tools/arm-none-eabi-gcc/4.8.3-2014q1/bin/../lib/gcc/arm-none-eabi/4.8.3/../../../../arm-none-eabi/lib/armv7-m/libc.a(lib_a-init.o)
_isatty                                           /var/folders/28/_tsmhg4172s_wy7vswfkzq9h0000gn/T/arduino_build_279421/core/wirish/syscalls.c.o
_lm_heap_end                                      /var/folders/28/_tsmhg4172s_wy7vswfkzq9h0000gn/T/arduino_build_279421/core/wirish/syscalls.c.o
_lm_heap_start                                    /var/folders/28/_tsmhg4172s_wy7vswfkzq9h0000gn/T/arduino_build_279421/core/wirish/syscalls.c.o
_lm_rom_img_cfgp                                  /var/folders/28/_tsmhg4172s_wy7vswfkzq9h0000gn/T/arduino_build_279421/core/wirish/start_c.c.o
_lseek                                            /var/folders/28/_tsmhg4172s_wy7vswfkzq9h0000gn/T/arduino_build_279421/core/wirish/syscalls.c.o
_mainCRTStartup                                   /Users/paulgallagher/Library/Arduino15/packages/arduino/tools/arm-none-eabi-gcc/4.8.3-2014q1/bin/../lib/gcc/arm-none-eabi/4.8.3/../../../../arm-none-eabi/lib/armv7-m/crt0.o
_open                                             /var/folders/28/_tsmhg4172s_wy7vswfkzq9h0000gn/T/arduino_build_279421/core/wirish/syscalls.c.o
_read                                             /var/folders/28/_tsmhg4172s_wy7vswfkzq9h0000gn/T/arduino_build_279421/core/wirish/syscalls.c.o
_sbrk                                             /var/folders/28/_tsmhg4172s_wy7vswfkzq9h0000gn/T/arduino_build_279421/core/wirish/syscalls.c.o
_start                                            /Users/paulgallagher/Library/Arduino15/packages/arduino/tools/arm-none-eabi-gcc/4.8.3-2014q1/bin/../lib/gcc/arm-none-eabi/4.8.3/../../../../arm-none-eabi/lib/armv7-m/crt0.o
_usart_clock_freq                                 /var/folders/28/_tsmhg4172s_wy7vswfkzq9h0000gn/T/arduino_cache_261188/core/core_33a28a35d5be94a4487e04df0719a759.a(usart_private.c.o)
                                                  /var/folders/28/_tsmhg4172s_wy7vswfkzq9h0000gn/T/arduino_cache_261188/core/core_33a28a35d5be94a4487e04df0719a759.a(usart_f1.c.o)
_write                                            /var/folders/28/_tsmhg4172s_wy7vswfkzq9h0000gn/T/arduino_build_279421/core/wirish/syscalls.c.o
abort                                             /var/folders/28/_tsmhg4172s_wy7vswfkzq9h0000gn/T/arduino_cache_261188/core/core_33a28a35d5be94a4487e04df0719a759.a(util.c.o)
adc1                                              /var/folders/28/_tsmhg4172s_wy7vswfkzq9h0000gn/T/arduino_cache_261188/core/core_33a28a35d5be94a4487e04df0719a759.a(adc_f1.c.o)
                                                  /var/folders/28/_tsmhg4172s_wy7vswfkzq9h0000gn/T/arduino_build_279421/core/board.cpp.o
adc2                                              /var/folders/28/_tsmhg4172s_wy7vswfkzq9h0000gn/T/arduino_cache_261188/core/core_33a28a35d5be94a4487e04df0719a759.a(adc_f1.c.o)
adc_attach_interrupt                              /var/folders/28/_tsmhg4172s_wy7vswfkzq9h0000gn/T/arduino_cache_261188/core/core_33a28a35d5be94a4487e04df0719a759.a(adc_f1.c.o)
adc_calibrate                                     /var/folders/28/_tsmhg4172s_wy7vswfkzq9h0000gn/T/arduino_cache_261188/core/core_33a28a35d5be94a4487e04df0719a759.a(adc_f1.c.o)
adc_config_gpio                                   /var/folders/28/_tsmhg4172s_wy7vswfkzq9h0000gn/T/arduino_cache_261188/core/core_33a28a35d5be94a4487e04df0719a759.a(adc_f1.c.o)
adc_enable_irq                                    /var/folders/28/_tsmhg4172s_wy7vswfkzq9h0000gn/T/arduino_cache_261188/core/core_33a28a35d5be94a4487e04df0719a759.a(adc_f1.c.o)
adc_enable_single_swstart                         /var/folders/28/_tsmhg4172s_wy7vswfkzq9h0000gn/T/arduino_cache_261188/core/core_33a28a35d5be94a4487e04df0719a759.a(adc_f1.c.o)
                                                  /var/folders/28/_tsmhg4172s_wy7vswfkzq9h0000gn/T/arduino_build_279421/core/wirish/boards.cpp.o
adc_foreach                                       /var/folders/28/_tsmhg4172s_wy7vswfkzq9h0000gn/T/arduino_cache_261188/core/core_33a28a35d5be94a4487e04df0719a759.a(adc_f1.c.o)
                                                  /var/folders/28/_tsmhg4172s_wy7vswfkzq9h0000gn/T/arduino_build_279421/core/wirish/boards.cpp.o
adc_init                                          /var/folders/28/_tsmhg4172s_wy7vswfkzq9h0000gn/T/arduino_cache_261188/core/core_33a28a35d5be94a4487e04df0719a759.a(adc.c.o)
                                                  /var/folders/28/_tsmhg4172s_wy7vswfkzq9h0000gn/T/arduino_cache_261188/core/core_33a28a35d5be94a4487e04df0719a759.a(adc_f1.c.o)
adc_read                                          /var/folders/28/_tsmhg4172s_wy7vswfkzq9h0000gn/T/arduino_cache_261188/core/core_33a28a35d5be94a4487e04df0719a759.a(adc.c.o)
adc_set_extsel                                    /var/folders/28/_tsmhg4172s_wy7vswfkzq9h0000gn/T/arduino_cache_261188/core/core_33a28a35d5be94a4487e04df0719a759.a(adc.c.o)
                                                  /var/folders/28/_tsmhg4172s_wy7vswfkzq9h0000gn/T/arduino_cache_261188/core/core_33a28a35d5be94a4487e04df0719a759.a(adc_f1.c.o)
adc_set_prescaler                                 /var/folders/28/_tsmhg4172s_wy7vswfkzq9h0000gn/T/arduino_cache_261188/core/core_33a28a35d5be94a4487e04df0719a759.a(adc_f1.c.o)
                                                  /var/folders/28/_tsmhg4172s_wy7vswfkzq9h0000gn/T/arduino_build_279421/core/wirish/boards.cpp.o
adc_set_sample_rate                               /var/folders/28/_tsmhg4172s_wy7vswfkzq9h0000gn/T/arduino_cache_261188/core/core_33a28a35d5be94a4487e04df0719a759.a(adc.c.o)
                                                  /var/folders/28/_tsmhg4172s_wy7vswfkzq9h0000gn/T/arduino_build_279421/core/wirish/boards.cpp.o
afio_init                                         /var/folders/28/_tsmhg4172s_wy7vswfkzq9h0000gn/T/arduino_cache_261188/core/core_33a28a35d5be94a4487e04df0719a759.a(gpio_f1.c.o)
                                                  /var/folders/28/_tsmhg4172s_wy7vswfkzq9h0000gn/T/arduino_build_279421/core/wirish/boards_setup.cpp.o
afio_remap                                        /var/folders/28/_tsmhg4172s_wy7vswfkzq9h0000gn/T/arduino_cache_261188/core/core_33a28a35d5be94a4487e04df0719a759.a(gpio_f1.c.o)
                                                  /var/folders/28/_tsmhg4172s_wy7vswfkzq9h0000gn/T/arduino_cache_261188/core/core_33a28a35d5be94a4487e04df0719a759.a(i2c.c.o)
                                                  /var/folders/28/_tsmhg4172s_wy7vswfkzq9h0000gn/T/arduino_cache_261188/core/core_33a28a35d5be94a4487e04df0719a759.a(i2c_f1.c.o)
atexit                                            /Users/paulgallagher/Library/Arduino15/packages/arduino/tools/arm-none-eabi-gcc/4.8.3-2014q1/bin/../lib/gcc/arm-none-eabi/4.8.3/../../../../arm-none-eabi/lib/armv7-m/libc.a(lib_a-atexit.o)
                                                  /Users/paulgallagher/Library/Arduino15/packages/arduino/tools/arm-none-eabi-gcc/4.8.3-2014q1/bin/../lib/gcc/arm-none-eabi/4.8.3/../../../../arm-none-eabi/lib/armv7-m/libc.a(lib_a-__call_atexit.o)
                                                  /Users/paulgallagher/Library/Arduino15/packages/arduino/tools/arm-none-eabi-gcc/4.8.3-2014q1/bin/../lib/gcc/arm-none-eabi/4.8.3/../../../../arm-none-eabi/lib/armv7-m/crt0.o
bkp                                               /var/folders/28/_tsmhg4172s_wy7vswfkzq9h0000gn/T/arduino_cache_261188/core/core_33a28a35d5be94a4487e04df0719a759.a(bkp_f1.c.o)
bkp_disable_writes                                /var/folders/28/_tsmhg4172s_wy7vswfkzq9h0000gn/T/arduino_cache_261188/core/core_33a28a35d5be94a4487e04df0719a759.a(bkp_f1.c.o)
                                                  /var/folders/28/_tsmhg4172s_wy7vswfkzq9h0000gn/T/arduino_cache_261188/core/core_33a28a35d5be94a4487e04df0719a759.a(usb_serial.cpp.o)
bkp_enable_writes                                 /var/folders/28/_tsmhg4172s_wy7vswfkzq9h0000gn/T/arduino_cache_261188/core/core_33a28a35d5be94a4487e04df0719a759.a(bkp_f1.c.o)
                                                  /var/folders/28/_tsmhg4172s_wy7vswfkzq9h0000gn/T/arduino_cache_261188/core/core_33a28a35d5be94a4487e04df0719a759.a(usb_serial.cpp.o)
bkp_init                                          /var/folders/28/_tsmhg4172s_wy7vswfkzq9h0000gn/T/arduino_cache_261188/core/core_33a28a35d5be94a4487e04df0719a759.a(bkp_f1.c.o)
                                                  /var/folders/28/_tsmhg4172s_wy7vswfkzq9h0000gn/T/arduino_cache_261188/core/core_33a28a35d5be94a4487e04df0719a759.a(usb_serial.cpp.o)
bkp_read                                          /var/folders/28/_tsmhg4172s_wy7vswfkzq9h0000gn/T/arduino_cache_261188/core/core_33a28a35d5be94a4487e04df0719a759.a(bkp_f1.c.o)
bkp_write                                         /var/folders/28/_tsmhg4172s_wy7vswfkzq9h0000gn/T/arduino_cache_261188/core/core_33a28a35d5be94a4487e04df0719a759.a(bkp_f1.c.o)
                                                  /var/folders/28/_tsmhg4172s_wy7vswfkzq9h0000gn/T/arduino_cache_261188/core/core_33a28a35d5be94a4487e04df0719a759.a(usb_serial.cpp.o)
boardADCPins                                      /var/folders/28/_tsmhg4172s_wy7vswfkzq9h0000gn/T/arduino_build_279421/core/board.cpp.o
boardInit()                                       /var/folders/28/_tsmhg4172s_wy7vswfkzq9h0000gn/T/arduino_build_279421/core/board.cpp.o
boardPWMPins                                      /var/folders/28/_tsmhg4172s_wy7vswfkzq9h0000gn/T/arduino_build_279421/core/board.cpp.o
boardUsedPins                                     /var/folders/28/_tsmhg4172s_wy7vswfkzq9h0000gn/T/arduino_build_279421/core/board.cpp.o
                                                  /var/folders/28/_tsmhg4172s_wy7vswfkzq9h0000gn/T/arduino_build_279421/core/wirish/boards.cpp.o
boardUsesPin(unsigned char)                       /var/folders/28/_tsmhg4172s_wy7vswfkzq9h0000gn/T/arduino_build_279421/core/wirish/boards.cpp.o
cgets                                             /var/folders/28/_tsmhg4172s_wy7vswfkzq9h0000gn/T/arduino_build_279421/core/wirish/syscalls.c.o
delay(unsigned long)                              /var/folders/28/_tsmhg4172s_wy7vswfkzq9h0000gn/T/arduino_cache_261188/core/core_33a28a35d5be94a4487e04df0719a759.a(wirish_time.cpp.o)
                                                  /var/folders/28/_tsmhg4172s_wy7vswfkzq9h0000gn/T/arduino_build_279421/sketch/DebugWithStlink.ino.cpp.o
delayMicroseconds(unsigned long)                  /var/folders/28/_tsmhg4172s_wy7vswfkzq9h0000gn/T/arduino_cache_261188/core/core_33a28a35d5be94a4487e04df0719a759.a(wirish_time.cpp.o)
digitalRead(unsigned char)                        /var/folders/28/_tsmhg4172s_wy7vswfkzq9h0000gn/T/arduino_cache_261188/core/core_33a28a35d5be94a4487e04df0719a759.a(wirish_digital.cpp.o)
digitalWrite(unsigned char, unsigned char)        /var/folders/28/_tsmhg4172s_wy7vswfkzq9h0000gn/T/arduino_cache_261188/core/core_33a28a35d5be94a4487e04df0719a759.a(wirish_digital.cpp.o)
                                                  /var/folders/28/_tsmhg4172s_wy7vswfkzq9h0000gn/T/arduino_build_279421/sketch/DebugWithStlink.ino.cpp.o
dma_attach_interrupt                              /var/folders/28/_tsmhg4172s_wy7vswfkzq9h0000gn/T/arduino_cache_261188/core/core_33a28a35d5be94a4487e04df0719a759.a(dma_f1.c.o)
dma_detach_interrupt                              /var/folders/28/_tsmhg4172s_wy7vswfkzq9h0000gn/T/arduino_cache_261188/core/core_33a28a35d5be94a4487e04df0719a759.a(dma_f1.c.o)
dma_disable                                       /var/folders/28/_tsmhg4172s_wy7vswfkzq9h0000gn/T/arduino_cache_261188/core/core_33a28a35d5be94a4487e04df0719a759.a(dma_f1.c.o)
dma_enable                                        /var/folders/28/_tsmhg4172s_wy7vswfkzq9h0000gn/T/arduino_cache_261188/core/core_33a28a35d5be94a4487e04df0719a759.a(dma_f1.c.o)
dma_get_irq_cause                                 /var/folders/28/_tsmhg4172s_wy7vswfkzq9h0000gn/T/arduino_cache_261188/core/core_33a28a35d5be94a4487e04df0719a759.a(dma_f1.c.o)
dma_init                                          /var/folders/28/_tsmhg4172s_wy7vswfkzq9h0000gn/T/arduino_cache_261188/core/core_33a28a35d5be94a4487e04df0719a759.a(dma.c.o)
dma_set_mem_addr                                  /var/folders/28/_tsmhg4172s_wy7vswfkzq9h0000gn/T/arduino_cache_261188/core/core_33a28a35d5be94a4487e04df0719a759.a(dma_f1.c.o)
dma_set_num_transfers                             /var/folders/28/_tsmhg4172s_wy7vswfkzq9h0000gn/T/arduino_cache_261188/core/core_33a28a35d5be94a4487e04df0719a759.a(dma_f1.c.o)
dma_set_per_addr                                  /var/folders/28/_tsmhg4172s_wy7vswfkzq9h0000gn/T/arduino_cache_261188/core/core_33a28a35d5be94a4487e04df0719a759.a(dma_f1.c.o)
dma_set_priority                                  /var/folders/28/_tsmhg4172s_wy7vswfkzq9h0000gn/T/arduino_cache_261188/core/core_33a28a35d5be94a4487e04df0719a759.a(dma_f1.c.o)
dma_setup_transfer                                /var/folders/28/_tsmhg4172s_wy7vswfkzq9h0000gn/T/arduino_cache_261188/core/core_33a28a35d5be94a4487e04df0719a759.a(dma_f1.c.o)
dma_tube_cfg                                      /var/folders/28/_tsmhg4172s_wy7vswfkzq9h0000gn/T/arduino_cache_261188/core/core_33a28a35d5be94a4487e04df0719a759.a(dma_f1.c.o)
exit                                              /Users/paulgallagher/Library/Arduino15/packages/arduino/tools/arm-none-eabi-gcc/4.8.3-2014q1/bin/../lib/gcc/arm-none-eabi/4.8.3/../../../../arm-none-eabi/lib/armv7-m/libc.a(lib_a-exit.o)
                                                  /var/folders/28/_tsmhg4172s_wy7vswfkzq9h0000gn/T/arduino_build_279421/core/wirish/start_c.c.o
                                                  /Users/paulgallagher/Library/Arduino15/packages/arduino/tools/arm-none-eabi-gcc/4.8.3-2014q1/bin/../lib/gcc/arm-none-eabi/4.8.3/../../../../arm-none-eabi/lib/armv7-m/crt0.o
exti_attach_callback                              /var/folders/28/_tsmhg4172s_wy7vswfkzq9h0000gn/T/arduino_cache_261188/core/core_33a28a35d5be94a4487e04df0719a759.a(exti.c.o)
exti_attach_interrupt                             /var/folders/28/_tsmhg4172s_wy7vswfkzq9h0000gn/T/arduino_cache_261188/core/core_33a28a35d5be94a4487e04df0719a759.a(exti.c.o)
exti_detach_interrupt                             /var/folders/28/_tsmhg4172s_wy7vswfkzq9h0000gn/T/arduino_cache_261188/core/core_33a28a35d5be94a4487e04df0719a759.a(exti.c.o)
exti_do_select                                    /var/folders/28/_tsmhg4172s_wy7vswfkzq9h0000gn/T/arduino_cache_261188/core/core_33a28a35d5be94a4487e04df0719a759.a(exti.c.o)
                                                  /var/folders/28/_tsmhg4172s_wy7vswfkzq9h0000gn/T/arduino_cache_261188/core/core_33a28a35d5be94a4487e04df0719a759.a(exti_f1.c.o)
exti_select                                       /var/folders/28/_tsmhg4172s_wy7vswfkzq9h0000gn/T/arduino_cache_261188/core/core_33a28a35d5be94a4487e04df0719a759.a(exti_f1.c.o)
                                                  /var/folders/28/_tsmhg4172s_wy7vswfkzq9h0000gn/T/arduino_cache_261188/core/core_33a28a35d5be94a4487e04df0719a759.a(exti.c.o)
fgets                                             /var/folders/28/_tsmhg4172s_wy7vswfkzq9h0000gn/T/arduino_build_279421/core/wirish/syscalls.c.o
flash_set_latency                                 /var/folders/28/_tsmhg4172s_wy7vswfkzq9h0000gn/T/arduino_cache_261188/core/core_33a28a35d5be94a4487e04df0719a759.a(flash.c.o)
                                                  /var/folders/28/_tsmhg4172s_wy7vswfkzq9h0000gn/T/arduino_build_279421/core/wirish/boards.cpp.o
free                                              /Users/paulgallagher/Library/Arduino15/packages/arduino/tools/arm-none-eabi-gcc/4.8.3-2014q1/bin/../lib/gcc/arm-none-eabi/4.8.3/../../../../arm-none-eabi/lib/armv7-m/libc.a(lib_a-__call_atexit.o)
get_direction                                     /var/folders/28/_tsmhg4172s_wy7vswfkzq9h0000gn/T/arduino_cache_261188/core/core_33a28a35d5be94a4487e04df0719a759.a(timer.c.o)
getch                                             /var/folders/28/_tsmhg4172s_wy7vswfkzq9h0000gn/T/arduino_build_279421/core/wirish/syscalls.c.o
global_counter                                    /var/folders/28/_tsmhg4172s_wy7vswfkzq9h0000gn/T/arduino_build_279421/sketch/DebugWithStlink.ino.cpp.o
gpio_get_mode                                     /var/folders/28/_tsmhg4172s_wy7vswfkzq9h0000gn/T/arduino_cache_261188/core/core_33a28a35d5be94a4487e04df0719a759.a(gpio_f1.c.o)
gpio_init                                         /var/folders/28/_tsmhg4172s_wy7vswfkzq9h0000gn/T/arduino_cache_261188/core/core_33a28a35d5be94a4487e04df0719a759.a(gpio.c.o)
                                                  /var/folders/28/_tsmhg4172s_wy7vswfkzq9h0000gn/T/arduino_cache_261188/core/core_33a28a35d5be94a4487e04df0719a759.a(gpio_f1.c.o)
gpio_init_all                                     /var/folders/28/_tsmhg4172s_wy7vswfkzq9h0000gn/T/arduino_cache_261188/core/core_33a28a35d5be94a4487e04df0719a759.a(gpio_f1.c.o)
                                                  /var/folders/28/_tsmhg4172s_wy7vswfkzq9h0000gn/T/arduino_build_279421/core/wirish/boards_setup.cpp.o
gpio_set_mode                                     /var/folders/28/_tsmhg4172s_wy7vswfkzq9h0000gn/T/arduino_cache_261188/core/core_33a28a35d5be94a4487e04df0719a759.a(gpio_f1.c.o)
                                                  /var/folders/28/_tsmhg4172s_wy7vswfkzq9h0000gn/T/arduino_cache_261188/core/core_33a28a35d5be94a4487e04df0719a759.a(wirish_digital_f1.cpp.o)
                                                  /var/folders/28/_tsmhg4172s_wy7vswfkzq9h0000gn/T/arduino_cache_261188/core/core_33a28a35d5be94a4487e04df0719a759.a(util.c.o)
                                                  /var/folders/28/_tsmhg4172s_wy7vswfkzq9h0000gn/T/arduino_cache_261188/core/core_33a28a35d5be94a4487e04df0719a759.a(usb_cdcacm.c.o)
                                                  /var/folders/28/_tsmhg4172s_wy7vswfkzq9h0000gn/T/arduino_cache_261188/core/core_33a28a35d5be94a4487e04df0719a759.a(usart_f1.c.o)
                                                  /var/folders/28/_tsmhg4172s_wy7vswfkzq9h0000gn/T/arduino_cache_261188/core/core_33a28a35d5be94a4487e04df0719a759.a(i2c_f1.c.o)
                                                  /var/folders/28/_tsmhg4172s_wy7vswfkzq9h0000gn/T/arduino_cache_261188/core/core_33a28a35d5be94a4487e04df0719a759.a(adc_f1.c.o)
                                                  /var/folders/28/_tsmhg4172s_wy7vswfkzq9h0000gn/T/arduino_build_279421/core/wirish/boards_setup.cpp.o
gpioa                                             /var/folders/28/_tsmhg4172s_wy7vswfkzq9h0000gn/T/arduino_cache_261188/core/core_33a28a35d5be94a4487e04df0719a759.a(gpio_f1.c.o)
                                                  /var/folders/28/_tsmhg4172s_wy7vswfkzq9h0000gn/T/arduino_build_279421/core/board.cpp.o
gpiob                                             /var/folders/28/_tsmhg4172s_wy7vswfkzq9h0000gn/T/arduino_cache_261188/core/core_33a28a35d5be94a4487e04df0719a759.a(gpio_f1.c.o)
                                                  /var/folders/28/_tsmhg4172s_wy7vswfkzq9h0000gn/T/arduino_cache_261188/core/core_33a28a35d5be94a4487e04df0719a759.a(i2c_f1.c.o)
                                                  /var/folders/28/_tsmhg4172s_wy7vswfkzq9h0000gn/T/arduino_build_279421/core/board.cpp.o
gpioc                                             /var/folders/28/_tsmhg4172s_wy7vswfkzq9h0000gn/T/arduino_cache_261188/core/core_33a28a35d5be94a4487e04df0719a759.a(gpio_f1.c.o)
                                                  /var/folders/28/_tsmhg4172s_wy7vswfkzq9h0000gn/T/arduino_build_279421/core/board.cpp.o
gpiod                                             /var/folders/28/_tsmhg4172s_wy7vswfkzq9h0000gn/T/arduino_cache_261188/core/core_33a28a35d5be94a4487e04df0719a759.a(gpio_f1.c.o)
hardware_init_hook                                /Users/paulgallagher/Library/Arduino15/packages/arduino/tools/arm-none-eabi-gcc/4.8.3-2014q1/bin/../lib/gcc/arm-none-eabi/4.8.3/../../../../arm-none-eabi/lib/armv7-m/crt0.o
i2c_bus_reset                                     /var/folders/28/_tsmhg4172s_wy7vswfkzq9h0000gn/T/arduino_cache_261188/core/core_33a28a35d5be94a4487e04df0719a759.a(i2c.c.o)
i2c_config_gpios                                  /var/folders/28/_tsmhg4172s_wy7vswfkzq9h0000gn/T/arduino_cache_261188/core/core_33a28a35d5be94a4487e04df0719a759.a(i2c_f1.c.o)
                                                  /var/folders/28/_tsmhg4172s_wy7vswfkzq9h0000gn/T/arduino_cache_261188/core/core_33a28a35d5be94a4487e04df0719a759.a(i2c.c.o)
i2c_init                                          /var/folders/28/_tsmhg4172s_wy7vswfkzq9h0000gn/T/arduino_cache_261188/core/core_33a28a35d5be94a4487e04df0719a759.a(i2c.c.o)
i2c_master_enable                                 /var/folders/28/_tsmhg4172s_wy7vswfkzq9h0000gn/T/arduino_cache_261188/core/core_33a28a35d5be94a4487e04df0719a759.a(i2c.c.o)
i2c_master_release_bus                            /var/folders/28/_tsmhg4172s_wy7vswfkzq9h0000gn/T/arduino_cache_261188/core/core_33a28a35d5be94a4487e04df0719a759.a(i2c_f1.c.o)
                                                  /var/folders/28/_tsmhg4172s_wy7vswfkzq9h0000gn/T/arduino_cache_261188/core/core_33a28a35d5be94a4487e04df0719a759.a(i2c.c.o)
i2c_master_xfer                                   /var/folders/28/_tsmhg4172s_wy7vswfkzq9h0000gn/T/arduino_cache_261188/core/core_33a28a35d5be94a4487e04df0719a759.a(i2c.c.o)
init()                                            /var/folders/28/_tsmhg4172s_wy7vswfkzq9h0000gn/T/arduino_build_279421/core/wirish/boards.cpp.o
                                                  /var/folders/28/_tsmhg4172s_wy7vswfkzq9h0000gn/T/arduino_cache_261188/core/core_33a28a35d5be94a4487e04df0719a759.a(main.cpp.o)
input_capture_mode                                /var/folders/28/_tsmhg4172s_wy7vswfkzq9h0000gn/T/arduino_cache_261188/core/core_33a28a35d5be94a4487e04df0719a759.a(timer.c.o)
isatty                                            /var/folders/28/_tsmhg4172s_wy7vswfkzq9h0000gn/T/arduino_build_279421/core/wirish/syscalls.c.o
iwdg_feed                                         /var/folders/28/_tsmhg4172s_wy7vswfkzq9h0000gn/T/arduino_cache_261188/core/core_33a28a35d5be94a4487e04df0719a759.a(iwdg.c.o)
iwdg_init                                         /var/folders/28/_tsmhg4172s_wy7vswfkzq9h0000gn/T/arduino_cache_261188/core/core_33a28a35d5be94a4487e04df0719a759.a(iwdg.c.o)
                                                  /var/folders/28/_tsmhg4172s_wy7vswfkzq9h0000gn/T/arduino_cache_261188/core/core_33a28a35d5be94a4487e04df0719a759.a(usb_serial.cpp.o)
loop()                                            /var/folders/28/_tsmhg4172s_wy7vswfkzq9h0000gn/T/arduino_build_279421/sketch/DebugWithStlink.ino.cpp.o
                                                  /var/folders/28/_tsmhg4172s_wy7vswfkzq9h0000gn/T/arduino_cache_261188/core/core_33a28a35d5be94a4487e04df0719a759.a(main.cpp.o)
main                                              /var/folders/28/_tsmhg4172s_wy7vswfkzq9h0000gn/T/arduino_cache_261188/core/core_33a28a35d5be94a4487e04df0719a759.a(main.cpp.o)
                                                  /var/folders/28/_tsmhg4172s_wy7vswfkzq9h0000gn/T/arduino_build_279421/core/wirish/start_c.c.o
                                                  /Users/paulgallagher/Library/Arduino15/packages/arduino/tools/arm-none-eabi-gcc/4.8.3-2014q1/bin/../lib/gcc/arm-none-eabi/4.8.3/../../../../arm-none-eabi/lib/armv7-m/crt0.o
malloc                                            /Users/paulgallagher/Library/Arduino15/packages/arduino/tools/arm-none-eabi-gcc/4.8.3-2014q1/bin/../lib/gcc/arm-none-eabi/4.8.3/../../../../arm-none-eabi/lib/armv7-m/libc.a(lib_a-__atexit.o)
memset                                            /Users/paulgallagher/Library/Arduino15/packages/arduino/tools/arm-none-eabi-gcc/4.8.3-2014q1/bin/../lib/gcc/arm-none-eabi/4.8.3/../../../../arm-none-eabi/lib/armv7-m/libc.a(lib_a-memset.o)
                                                  /Users/paulgallagher/Library/Arduino15/packages/arduino/tools/arm-none-eabi-gcc/4.8.3-2014q1/bin/../lib/gcc/arm-none-eabi/4.8.3/../../../../arm-none-eabi/lib/armv7-m/crt0.o
nvic_init                                         /var/folders/28/_tsmhg4172s_wy7vswfkzq9h0000gn/T/arduino_cache_261188/core/core_33a28a35d5be94a4487e04df0719a759.a(nvic.c.o)
                                                  /var/folders/28/_tsmhg4172s_wy7vswfkzq9h0000gn/T/arduino_build_279421/core/wirish/boards.cpp.o
nvic_irq_set_priority                             /var/folders/28/_tsmhg4172s_wy7vswfkzq9h0000gn/T/arduino_cache_261188/core/core_33a28a35d5be94a4487e04df0719a759.a(nvic.c.o)
                                                  /var/folders/28/_tsmhg4172s_wy7vswfkzq9h0000gn/T/arduino_cache_261188/core/core_33a28a35d5be94a4487e04df0719a759.a(i2c_f1.c.o)
nvic_set_vector_table                             /var/folders/28/_tsmhg4172s_wy7vswfkzq9h0000gn/T/arduino_cache_261188/core/core_33a28a35d5be94a4487e04df0719a759.a(nvic.c.o)
nvic_sys_reset                                    /var/folders/28/_tsmhg4172s_wy7vswfkzq9h0000gn/T/arduino_cache_261188/core/core_33a28a35d5be94a4487e04df0719a759.a(nvic.c.o)
                                                  /var/folders/28/_tsmhg4172s_wy7vswfkzq9h0000gn/T/arduino_cache_261188/core/core_33a28a35d5be94a4487e04df0719a759.a(usb_serial.cpp.o)
pInformation                                      /var/folders/28/_tsmhg4172s_wy7vswfkzq9h0000gn/T/arduino_cache_261188/core/core_33a28a35d5be94a4487e04df0719a759.a(usb_init.c.o)
                                                  /var/folders/28/_tsmhg4172s_wy7vswfkzq9h0000gn/T/arduino_cache_261188/core/core_33a28a35d5be94a4487e04df0719a759.a(usb_core.c.o)
                                                  /var/folders/28/_tsmhg4172s_wy7vswfkzq9h0000gn/T/arduino_cache_261188/core/core_33a28a35d5be94a4487e04df0719a759.a(usb_cdcacm.c.o)
                                                  /var/folders/28/_tsmhg4172s_wy7vswfkzq9h0000gn/T/arduino_cache_261188/core/core_33a28a35d5be94a4487e04df0719a759.a(usb.c.o)
pProperty                                         /var/folders/28/_tsmhg4172s_wy7vswfkzq9h0000gn/T/arduino_cache_261188/core/core_33a28a35d5be94a4487e04df0719a759.a(usb_init.c.o)
                                                  /var/folders/28/_tsmhg4172s_wy7vswfkzq9h0000gn/T/arduino_cache_261188/core/core_33a28a35d5be94a4487e04df0719a759.a(usb_core.c.o)
                                                  /var/folders/28/_tsmhg4172s_wy7vswfkzq9h0000gn/T/arduino_cache_261188/core/core_33a28a35d5be94a4487e04df0719a759.a(usb_cdcacm.c.o)
                                                  /var/folders/28/_tsmhg4172s_wy7vswfkzq9h0000gn/T/arduino_cache_261188/core/core_33a28a35d5be94a4487e04df0719a759.a(usb.c.o)
pUser_Standard_Requests                           /var/folders/28/_tsmhg4172s_wy7vswfkzq9h0000gn/T/arduino_cache_261188/core/core_33a28a35d5be94a4487e04df0719a759.a(usb_init.c.o)
                                                  /var/folders/28/_tsmhg4172s_wy7vswfkzq9h0000gn/T/arduino_cache_261188/core/core_33a28a35d5be94a4487e04df0719a759.a(usb_core.c.o)
                                                  /var/folders/28/_tsmhg4172s_wy7vswfkzq9h0000gn/T/arduino_cache_261188/core/core_33a28a35d5be94a4487e04df0719a759.a(usb.c.o)
pinMode(unsigned char, WiringPinMode)             /var/folders/28/_tsmhg4172s_wy7vswfkzq9h0000gn/T/arduino_cache_261188/core/core_33a28a35d5be94a4487e04df0719a759.a(wirish_digital_f1.cpp.o)
                                                  /var/folders/28/_tsmhg4172s_wy7vswfkzq9h0000gn/T/arduino_build_279421/sketch/DebugWithStlink.ino.cpp.o
premain()                                         /var/folders/28/_tsmhg4172s_wy7vswfkzq9h0000gn/T/arduino_cache_261188/core/core_33a28a35d5be94a4487e04df0719a759.a(main.cpp.o)
putch                                             /var/folders/28/_tsmhg4172s_wy7vswfkzq9h0000gn/T/arduino_build_279421/core/wirish/syscalls.c.o
rcc_clk_disable                                   /var/folders/28/_tsmhg4172s_wy7vswfkzq9h0000gn/T/arduino_cache_261188/core/core_33a28a35d5be94a4487e04df0719a759.a(rcc_f1.c.o)
                                                  /var/folders/28/_tsmhg4172s_wy7vswfkzq9h0000gn/T/arduino_build_279421/core/wirish/boards_setup.cpp.o
rcc_clk_enable                                    /var/folders/28/_tsmhg4172s_wy7vswfkzq9h0000gn/T/arduino_cache_261188/core/core_33a28a35d5be94a4487e04df0719a759.a(rcc_f1.c.o)
                                                  /var/folders/28/_tsmhg4172s_wy7vswfkzq9h0000gn/T/arduino_cache_261188/core/core_33a28a35d5be94a4487e04df0719a759.a(usart.c.o)
                                                  /var/folders/28/_tsmhg4172s_wy7vswfkzq9h0000gn/T/arduino_cache_261188/core/core_33a28a35d5be94a4487e04df0719a759.a(i2c.c.o)
                                                  /var/folders/28/_tsmhg4172s_wy7vswfkzq9h0000gn/T/arduino_cache_261188/core/core_33a28a35d5be94a4487e04df0719a759.a(gpio.c.o)
                                                  /var/folders/28/_tsmhg4172s_wy7vswfkzq9h0000gn/T/arduino_cache_261188/core/core_33a28a35d5be94a4487e04df0719a759.a(dma.c.o)
                                                  /var/folders/28/_tsmhg4172s_wy7vswfkzq9h0000gn/T/arduino_cache_261188/core/core_33a28a35d5be94a4487e04df0719a759.a(bkp_f1.c.o)
                                                  /var/folders/28/_tsmhg4172s_wy7vswfkzq9h0000gn/T/arduino_cache_261188/core/core_33a28a35d5be94a4487e04df0719a759.a(usb.c.o)
                                                  /var/folders/28/_tsmhg4172s_wy7vswfkzq9h0000gn/T/arduino_cache_261188/core/core_33a28a35d5be94a4487e04df0719a759.a(timer.c.o)
                                                  /var/folders/28/_tsmhg4172s_wy7vswfkzq9h0000gn/T/arduino_cache_261188/core/core_33a28a35d5be94a4487e04df0719a759.a(gpio_f1.c.o)
                                                  /var/folders/28/_tsmhg4172s_wy7vswfkzq9h0000gn/T/arduino_cache_261188/core/core_33a28a35d5be94a4487e04df0719a759.a(adc.c.o)
rcc_clk_init                                      /var/folders/28/_tsmhg4172s_wy7vswfkzq9h0000gn/T/arduino_cache_261188/core/core_33a28a35d5be94a4487e04df0719a759.a(rcc_f1.c.o)
rcc_configure_pll                                 /var/folders/28/_tsmhg4172s_wy7vswfkzq9h0000gn/T/arduino_cache_261188/core/core_33a28a35d5be94a4487e04df0719a759.a(rcc_f1.c.o)
                                                  /var/folders/28/_tsmhg4172s_wy7vswfkzq9h0000gn/T/arduino_build_279421/core/wirish/boards.cpp.o
rcc_dev_clk                                       /var/folders/28/_tsmhg4172s_wy7vswfkzq9h0000gn/T/arduino_cache_261188/core/core_33a28a35d5be94a4487e04df0719a759.a(rcc.c.o)
                                                  /var/folders/28/_tsmhg4172s_wy7vswfkzq9h0000gn/T/arduino_cache_261188/core/core_33a28a35d5be94a4487e04df0719a759.a(usart_private.c.o)
                                                  /var/folders/28/_tsmhg4172s_wy7vswfkzq9h0000gn/T/arduino_cache_261188/core/core_33a28a35d5be94a4487e04df0719a759.a(rcc_f1.c.o)
rcc_dev_table                                     /var/folders/28/_tsmhg4172s_wy7vswfkzq9h0000gn/T/arduino_cache_261188/core/core_33a28a35d5be94a4487e04df0719a759.a(rcc_f1.c.o)
                                                  /var/folders/28/_tsmhg4172s_wy7vswfkzq9h0000gn/T/arduino_cache_261188/core/core_33a28a35d5be94a4487e04df0719a759.a(rcc.c.o)
rcc_is_clk_on                                     /var/folders/28/_tsmhg4172s_wy7vswfkzq9h0000gn/T/arduino_cache_261188/core/core_33a28a35d5be94a4487e04df0719a759.a(rcc.c.o)
                                                  /var/folders/28/_tsmhg4172s_wy7vswfkzq9h0000gn/T/arduino_cache_261188/core/core_33a28a35d5be94a4487e04df0719a759.a(rcc_f1.c.o)
rcc_is_clk_ready                                  /var/folders/28/_tsmhg4172s_wy7vswfkzq9h0000gn/T/arduino_cache_261188/core/core_33a28a35d5be94a4487e04df0719a759.a(rcc.c.o)
                                                  /var/folders/28/_tsmhg4172s_wy7vswfkzq9h0000gn/T/arduino_cache_261188/core/core_33a28a35d5be94a4487e04df0719a759.a(rcc_f1.c.o)
                                                  /var/folders/28/_tsmhg4172s_wy7vswfkzq9h0000gn/T/arduino_build_279421/core/wirish/boards.cpp.o
rcc_reset_dev                                     /var/folders/28/_tsmhg4172s_wy7vswfkzq9h0000gn/T/arduino_cache_261188/core/core_33a28a35d5be94a4487e04df0719a759.a(rcc_f1.c.o)
                                                  /var/folders/28/_tsmhg4172s_wy7vswfkzq9h0000gn/T/arduino_cache_261188/core/core_33a28a35d5be94a4487e04df0719a759.a(i2c.c.o)
                                                  /var/folders/28/_tsmhg4172s_wy7vswfkzq9h0000gn/T/arduino_cache_261188/core/core_33a28a35d5be94a4487e04df0719a759.a(gpio.c.o)
                                                  /var/folders/28/_tsmhg4172s_wy7vswfkzq9h0000gn/T/arduino_cache_261188/core/core_33a28a35d5be94a4487e04df0719a759.a(bkp_f1.c.o)
                                                  /var/folders/28/_tsmhg4172s_wy7vswfkzq9h0000gn/T/arduino_cache_261188/core/core_33a28a35d5be94a4487e04df0719a759.a(timer.c.o)
                                                  /var/folders/28/_tsmhg4172s_wy7vswfkzq9h0000gn/T/arduino_cache_261188/core/core_33a28a35d5be94a4487e04df0719a759.a(gpio_f1.c.o)
                                                  /var/folders/28/_tsmhg4172s_wy7vswfkzq9h0000gn/T/arduino_cache_261188/core/core_33a28a35d5be94a4487e04df0719a759.a(adc.c.o)
rcc_set_prescaler                                 /var/folders/28/_tsmhg4172s_wy7vswfkzq9h0000gn/T/arduino_cache_261188/core/core_33a28a35d5be94a4487e04df0719a759.a(rcc_f1.c.o)
                                                  /var/folders/28/_tsmhg4172s_wy7vswfkzq9h0000gn/T/arduino_cache_261188/core/core_33a28a35d5be94a4487e04df0719a759.a(adc_f1.c.o)
                                                  /var/folders/28/_tsmhg4172s_wy7vswfkzq9h0000gn/T/arduino_build_279421/core/wirish/boards_setup.cpp.o
rcc_switch_sysclk                                 /var/folders/28/_tsmhg4172s_wy7vswfkzq9h0000gn/T/arduino_cache_261188/core/core_33a28a35d5be94a4487e04df0719a759.a(rcc.c.o)
                                                  /var/folders/28/_tsmhg4172s_wy7vswfkzq9h0000gn/T/arduino_cache_261188/core/core_33a28a35d5be94a4487e04df0719a759.a(rcc_f1.c.o)
                                                  /var/folders/28/_tsmhg4172s_wy7vswfkzq9h0000gn/T/arduino_build_279421/core/wirish/boards.cpp.o
rcc_turn_off_clk                                  /var/folders/28/_tsmhg4172s_wy7vswfkzq9h0000gn/T/arduino_cache_261188/core/core_33a28a35d5be94a4487e04df0719a759.a(rcc.c.o)
                                                  /var/folders/28/_tsmhg4172s_wy7vswfkzq9h0000gn/T/arduino_build_279421/core/wirish/boards.cpp.o
rcc_turn_on_clk                                   /var/folders/28/_tsmhg4172s_wy7vswfkzq9h0000gn/T/arduino_cache_261188/core/core_33a28a35d5be94a4487e04df0719a759.a(rcc.c.o)
                                                  /var/folders/28/_tsmhg4172s_wy7vswfkzq9h0000gn/T/arduino_cache_261188/core/core_33a28a35d5be94a4487e04df0719a759.a(rcc_f1.c.o)
                                                  /var/folders/28/_tsmhg4172s_wy7vswfkzq9h0000gn/T/arduino_build_279421/core/wirish/boards.cpp.o
setup()                                           /var/folders/28/_tsmhg4172s_wy7vswfkzq9h0000gn/T/arduino_build_279421/sketch/DebugWithStlink.ino.cpp.o
                                                  /var/folders/28/_tsmhg4172s_wy7vswfkzq9h0000gn/T/arduino_cache_261188/core/core_33a28a35d5be94a4487e04df0719a759.a(main.cpp.o)
software_init_hook                                /Users/paulgallagher/Library/Arduino15/packages/arduino/tools/arm-none-eabi-gcc/4.8.3-2014q1/bin/../lib/gcc/arm-none-eabi/4.8.3/../../../../arm-none-eabi/lib/armv7-m/crt0.o
start_c                                           /var/folders/28/_tsmhg4172s_wy7vswfkzq9h0000gn/T/arduino_build_279421/core/wirish/start_c.c.o
                                                  /var/folders/28/_tsmhg4172s_wy7vswfkzq9h0000gn/T/arduino_build_279421/core/wirish/start.S.o
strlen                                            /Users/paulgallagher/Library/Arduino15/packages/arduino/tools/arm-none-eabi-gcc/4.8.3-2014q1/bin/../lib/gcc/arm-none-eabi/4.8.3/../../../../arm-none-eabi/lib/armv7-m/libc.a(lib_a-strlen.o)
                                                  /var/folders/28/_tsmhg4172s_wy7vswfkzq9h0000gn/T/arduino_cache_261188/core/core_33a28a35d5be94a4487e04df0719a759.a(usb_serial.cpp.o)
                                                  /var/folders/28/_tsmhg4172s_wy7vswfkzq9h0000gn/T/arduino_cache_261188/core/core_33a28a35d5be94a4487e04df0719a759.a(Print.cpp.o)
systick_attach_callback                           /var/folders/28/_tsmhg4172s_wy7vswfkzq9h0000gn/T/arduino_cache_261188/core/core_33a28a35d5be94a4487e04df0719a759.a(systick.c.o)
systick_disable                                   /var/folders/28/_tsmhg4172s_wy7vswfkzq9h0000gn/T/arduino_cache_261188/core/core_33a28a35d5be94a4487e04df0719a759.a(systick.c.o)
systick_enable                                    /var/folders/28/_tsmhg4172s_wy7vswfkzq9h0000gn/T/arduino_cache_261188/core/core_33a28a35d5be94a4487e04df0719a759.a(systick.c.o)
systick_init                                      /var/folders/28/_tsmhg4172s_wy7vswfkzq9h0000gn/T/arduino_cache_261188/core/core_33a28a35d5be94a4487e04df0719a759.a(systick.c.o)
                                                  /var/folders/28/_tsmhg4172s_wy7vswfkzq9h0000gn/T/arduino_build_279421/core/wirish/boards.cpp.o
systick_uptime_millis                             /var/folders/28/_tsmhg4172s_wy7vswfkzq9h0000gn/T/arduino_cache_261188/core/core_33a28a35d5be94a4487e04df0719a759.a(i2c.c.o)
                                                  /var/folders/28/_tsmhg4172s_wy7vswfkzq9h0000gn/T/arduino_cache_261188/core/core_33a28a35d5be94a4487e04df0719a759.a(wirish_time.cpp.o)
                                                  /var/folders/28/_tsmhg4172s_wy7vswfkzq9h0000gn/T/arduino_cache_261188/core/core_33a28a35d5be94a4487e04df0719a759.a(usb_serial.cpp.o)
                                                  /var/folders/28/_tsmhg4172s_wy7vswfkzq9h0000gn/T/arduino_cache_261188/core/core_33a28a35d5be94a4487e04df0719a759.a(systick.c.o)
throb                                             /var/folders/28/_tsmhg4172s_wy7vswfkzq9h0000gn/T/arduino_cache_261188/core/core_33a28a35d5be94a4487e04df0719a759.a(util.c.o)
timer1                                            /var/folders/28/_tsmhg4172s_wy7vswfkzq9h0000gn/T/arduino_cache_261188/core/core_33a28a35d5be94a4487e04df0719a759.a(timer.c.o)
                                                  /var/folders/28/_tsmhg4172s_wy7vswfkzq9h0000gn/T/arduino_build_279421/core/board.cpp.o
timer2                                            /var/folders/28/_tsmhg4172s_wy7vswfkzq9h0000gn/T/arduino_cache_261188/core/core_33a28a35d5be94a4487e04df0719a759.a(timer.c.o)
                                                  /var/folders/28/_tsmhg4172s_wy7vswfkzq9h0000gn/T/arduino_build_279421/core/board.cpp.o
timer3                                            /var/folders/28/_tsmhg4172s_wy7vswfkzq9h0000gn/T/arduino_cache_261188/core/core_33a28a35d5be94a4487e04df0719a759.a(timer.c.o)
                                                  /var/folders/28/_tsmhg4172s_wy7vswfkzq9h0000gn/T/arduino_build_279421/core/board.cpp.o
timer4                                            /var/folders/28/_tsmhg4172s_wy7vswfkzq9h0000gn/T/arduino_cache_261188/core/core_33a28a35d5be94a4487e04df0719a759.a(timer.c.o)
                                                  /var/folders/28/_tsmhg4172s_wy7vswfkzq9h0000gn/T/arduino_build_279421/core/board.cpp.o
timer_attach_interrupt                            /var/folders/28/_tsmhg4172s_wy7vswfkzq9h0000gn/T/arduino_cache_261188/core/core_33a28a35d5be94a4487e04df0719a759.a(timer.c.o)
timer_detach_interrupt                            /var/folders/28/_tsmhg4172s_wy7vswfkzq9h0000gn/T/arduino_cache_261188/core/core_33a28a35d5be94a4487e04df0719a759.a(timer.c.o)
timer_disable                                     /var/folders/28/_tsmhg4172s_wy7vswfkzq9h0000gn/T/arduino_cache_261188/core/core_33a28a35d5be94a4487e04df0719a759.a(timer.c.o)
timer_foreach                                     /var/folders/28/_tsmhg4172s_wy7vswfkzq9h0000gn/T/arduino_cache_261188/core/core_33a28a35d5be94a4487e04df0719a759.a(timer.c.o)
                                                  /var/folders/28/_tsmhg4172s_wy7vswfkzq9h0000gn/T/arduino_build_279421/core/wirish/boards.cpp.o
timer_has_cc_channel                              /var/folders/28/_tsmhg4172s_wy7vswfkzq9h0000gn/T/arduino_cache_261188/core/core_33a28a35d5be94a4487e04df0719a759.a(timer.c.o)
                                                  /var/folders/28/_tsmhg4172s_wy7vswfkzq9h0000gn/T/arduino_build_279421/core/wirish/boards.cpp.o
timer_init                                        /var/folders/28/_tsmhg4172s_wy7vswfkzq9h0000gn/T/arduino_cache_261188/core/core_33a28a35d5be94a4487e04df0719a759.a(timer.c.o)
                                                  /var/folders/28/_tsmhg4172s_wy7vswfkzq9h0000gn/T/arduino_build_279421/core/wirish/boards.cpp.o
timer_set_mode                                    /var/folders/28/_tsmhg4172s_wy7vswfkzq9h0000gn/T/arduino_cache_261188/core/core_33a28a35d5be94a4487e04df0719a759.a(timer.c.o)
                                                  /var/folders/28/_tsmhg4172s_wy7vswfkzq9h0000gn/T/arduino_cache_261188/core/core_33a28a35d5be94a4487e04df0719a759.a(wirish_digital_f1.cpp.o)
                                                  /var/folders/28/_tsmhg4172s_wy7vswfkzq9h0000gn/T/arduino_cache_261188/core/core_33a28a35d5be94a4487e04df0719a759.a(HardwareSerial.cpp.o)
usart_config_gpios_async                          /var/folders/28/_tsmhg4172s_wy7vswfkzq9h0000gn/T/arduino_cache_261188/core/core_33a28a35d5be94a4487e04df0719a759.a(usart_f1.c.o)
                                                  /var/folders/28/_tsmhg4172s_wy7vswfkzq9h0000gn/T/arduino_cache_261188/core/core_33a28a35d5be94a4487e04df0719a759.a(HardwareSerial.cpp.o)
usart_disable                                     /var/folders/28/_tsmhg4172s_wy7vswfkzq9h0000gn/T/arduino_cache_261188/core/core_33a28a35d5be94a4487e04df0719a759.a(usart.c.o)
                                                  /var/folders/28/_tsmhg4172s_wy7vswfkzq9h0000gn/T/arduino_cache_261188/core/core_33a28a35d5be94a4487e04df0719a759.a(HardwareSerial.cpp.o)
usart_enable                                      /var/folders/28/_tsmhg4172s_wy7vswfkzq9h0000gn/T/arduino_cache_261188/core/core_33a28a35d5be94a4487e04df0719a759.a(usart.c.o)
                                                  /var/folders/28/_tsmhg4172s_wy7vswfkzq9h0000gn/T/arduino_cache_261188/core/core_33a28a35d5be94a4487e04df0719a759.a(HardwareSerial.cpp.o)
usart_foreach                                     /var/folders/28/_tsmhg4172s_wy7vswfkzq9h0000gn/T/arduino_cache_261188/core/core_33a28a35d5be94a4487e04df0719a759.a(usart_f1.c.o)
usart_init                                        /var/folders/28/_tsmhg4172s_wy7vswfkzq9h0000gn/T/arduino_cache_261188/core/core_33a28a35d5be94a4487e04df0719a759.a(usart.c.o)
                                                  /var/folders/28/_tsmhg4172s_wy7vswfkzq9h0000gn/T/arduino_cache_261188/core/core_33a28a35d5be94a4487e04df0719a759.a(HardwareSerial.cpp.o)
usart_putudec                                     /var/folders/28/_tsmhg4172s_wy7vswfkzq9h0000gn/T/arduino_cache_261188/core/core_33a28a35d5be94a4487e04df0719a759.a(usart.c.o)
                                                  /var/folders/28/_tsmhg4172s_wy7vswfkzq9h0000gn/T/arduino_cache_261188/core/core_33a28a35d5be94a4487e04df0719a759.a(util.c.o)
usart_rx                                          /var/folders/28/_tsmhg4172s_wy7vswfkzq9h0000gn/T/arduino_cache_261188/core/core_33a28a35d5be94a4487e04df0719a759.a(usart.c.o)
usart_set_baud_rate                               /var/folders/28/_tsmhg4172s_wy7vswfkzq9h0000gn/T/arduino_cache_261188/core/core_33a28a35d5be94a4487e04df0719a759.a(usart_f1.c.o)
                                                  /var/folders/28/_tsmhg4172s_wy7vswfkzq9h0000gn/T/arduino_cache_261188/core/core_33a28a35d5be94a4487e04df0719a759.a(HardwareSerial.cpp.o)
usart_tx                                          /var/folders/28/_tsmhg4172s_wy7vswfkzq9h0000gn/T/arduino_cache_261188/core/core_33a28a35d5be94a4487e04df0719a759.a(usart.c.o)
                                                  /var/folders/28/_tsmhg4172s_wy7vswfkzq9h0000gn/T/arduino_cache_261188/core/core_33a28a35d5be94a4487e04df0719a759.a(HardwareSerial.cpp.o)
                                                  /var/folders/28/_tsmhg4172s_wy7vswfkzq9h0000gn/T/arduino_cache_261188/core/core_33a28a35d5be94a4487e04df0719a759.a(util.c.o)
usb_cdcacm_data_available                         /var/folders/28/_tsmhg4172s_wy7vswfkzq9h0000gn/T/arduino_cache_261188/core/core_33a28a35d5be94a4487e04df0719a759.a(usb_cdcacm.c.o)
                                                  /var/folders/28/_tsmhg4172s_wy7vswfkzq9h0000gn/T/arduino_cache_261188/core/core_33a28a35d5be94a4487e04df0719a759.a(usb_serial.cpp.o)
usb_cdcacm_disable                                /var/folders/28/_tsmhg4172s_wy7vswfkzq9h0000gn/T/arduino_cache_261188/core/core_33a28a35d5be94a4487e04df0719a759.a(usb_cdcacm.c.o)
                                                  /var/folders/28/_tsmhg4172s_wy7vswfkzq9h0000gn/T/arduino_cache_261188/core/core_33a28a35d5be94a4487e04df0719a759.a(usb_serial.cpp.o)
usb_cdcacm_enable                                 /var/folders/28/_tsmhg4172s_wy7vswfkzq9h0000gn/T/arduino_cache_261188/core/core_33a28a35d5be94a4487e04df0719a759.a(usb_cdcacm.c.o)
                                                  /var/folders/28/_tsmhg4172s_wy7vswfkzq9h0000gn/T/arduino_cache_261188/core/core_33a28a35d5be94a4487e04df0719a759.a(usb_serial.cpp.o)
usb_cdcacm_get_baud                               /var/folders/28/_tsmhg4172s_wy7vswfkzq9h0000gn/T/arduino_cache_261188/core/core_33a28a35d5be94a4487e04df0719a759.a(usb_cdcacm.c.o)
                                                  /var/folders/28/_tsmhg4172s_wy7vswfkzq9h0000gn/T/arduino_cache_261188/core/core_33a28a35d5be94a4487e04df0719a759.a(usb_serial.cpp.o)
usb_cdcacm_get_dtr                                /var/folders/28/_tsmhg4172s_wy7vswfkzq9h0000gn/T/arduino_cache_261188/core/core_33a28a35d5be94a4487e04df0719a759.a(usb_cdcacm.c.o)
                                                  /var/folders/28/_tsmhg4172s_wy7vswfkzq9h0000gn/T/arduino_cache_261188/core/core_33a28a35d5be94a4487e04df0719a759.a(usb_serial.cpp.o)
usb_cdcacm_get_line_coding                        /var/folders/28/_tsmhg4172s_wy7vswfkzq9h0000gn/T/arduino_cache_261188/core/core_33a28a35d5be94a4487e04df0719a759.a(usb_cdcacm.c.o)
usb_cdcacm_get_n_data_bits                        /var/folders/28/_tsmhg4172s_wy7vswfkzq9h0000gn/T/arduino_cache_261188/core/core_33a28a35d5be94a4487e04df0719a759.a(usb_cdcacm.c.o)
usb_cdcacm_get_parity                             /var/folders/28/_tsmhg4172s_wy7vswfkzq9h0000gn/T/arduino_cache_261188/core/core_33a28a35d5be94a4487e04df0719a759.a(usb_cdcacm.c.o)
usb_cdcacm_get_pending                            /var/folders/28/_tsmhg4172s_wy7vswfkzq9h0000gn/T/arduino_cache_261188/core/core_33a28a35d5be94a4487e04df0719a759.a(usb_cdcacm.c.o)
                                                  /var/folders/28/_tsmhg4172s_wy7vswfkzq9h0000gn/T/arduino_cache_261188/core/core_33a28a35d5be94a4487e04df0719a759.a(usb_serial.cpp.o)
usb_cdcacm_get_rts                                /var/folders/28/_tsmhg4172s_wy7vswfkzq9h0000gn/T/arduino_cache_261188/core/core_33a28a35d5be94a4487e04df0719a759.a(usb_cdcacm.c.o)
                                                  /var/folders/28/_tsmhg4172s_wy7vswfkzq9h0000gn/T/arduino_cache_261188/core/core_33a28a35d5be94a4487e04df0719a759.a(usb_serial.cpp.o)
usb_cdcacm_get_stop_bits                          /var/folders/28/_tsmhg4172s_wy7vswfkzq9h0000gn/T/arduino_cache_261188/core/core_33a28a35d5be94a4487e04df0719a759.a(usb_cdcacm.c.o)
usb_cdcacm_is_transmitting                        /var/folders/28/_tsmhg4172s_wy7vswfkzq9h0000gn/T/arduino_cache_261188/core/core_33a28a35d5be94a4487e04df0719a759.a(usb_cdcacm.c.o)
usb_cdcacm_peek                                   /var/folders/28/_tsmhg4172s_wy7vswfkzq9h0000gn/T/arduino_cache_261188/core/core_33a28a35d5be94a4487e04df0719a759.a(usb_cdcacm.c.o)
                                                  /var/folders/28/_tsmhg4172s_wy7vswfkzq9h0000gn/T/arduino_cache_261188/core/core_33a28a35d5be94a4487e04df0719a759.a(usb_serial.cpp.o)
usb_cdcacm_peek_char                              /var/folders/28/_tsmhg4172s_wy7vswfkzq9h0000gn/T/arduino_cache_261188/core/core_33a28a35d5be94a4487e04df0719a759.a(usb_cdcacm.c.o)
usb_cdcacm_peek_ex                                /var/folders/28/_tsmhg4172s_wy7vswfkzq9h0000gn/T/arduino_cache_261188/core/core_33a28a35d5be94a4487e04df0719a759.a(usb_cdcacm.c.o)
                                                  /var/folders/28/_tsmhg4172s_wy7vswfkzq9h0000gn/T/arduino_cache_261188/core/core_33a28a35d5be94a4487e04df0719a759.a(usb_serial.cpp.o)
usb_cdcacm_putc                                   /var/folders/28/_tsmhg4172s_wy7vswfkzq9h0000gn/T/arduino_cache_261188/core/core_33a28a35d5be94a4487e04df0719a759.a(usb_cdcacm.c.o)
usb_cdcacm_rx                                     /var/folders/28/_tsmhg4172s_wy7vswfkzq9h0000gn/T/arduino_cache_261188/core/core_33a28a35d5be94a4487e04df0719a759.a(usb_cdcacm.c.o)
                                                  /var/folders/28/_tsmhg4172s_wy7vswfkzq9h0000gn/T/arduino_cache_261188/core/core_33a28a35d5be94a4487e04df0719a759.a(usb_serial.cpp.o)
usb_cdcacm_set_hooks                              /var/folders/28/_tsmhg4172s_wy7vswfkzq9h0000gn/T/arduino_cache_261188/core/core_33a28a35d5be94a4487e04df0719a759.a(usb_cdcacm.c.o)
                                                  /var/folders/28/_tsmhg4172s_wy7vswfkzq9h0000gn/T/arduino_cache_261188/core/core_33a28a35d5be94a4487e04df0719a759.a(usb_serial.cpp.o)
usb_cdcacm_tx                                     /var/folders/28/_tsmhg4172s_wy7vswfkzq9h0000gn/T/arduino_cache_261188/core/core_33a28a35d5be94a4487e04df0719a759.a(usb_cdcacm.c.o)
                                                  /var/folders/28/_tsmhg4172s_wy7vswfkzq9h0000gn/T/arduino_cache_261188/core/core_33a28a35d5be94a4487e04df0719a759.a(usb_serial.cpp.o)
usb_init_usblib                                   /var/folders/28/_tsmhg4172s_wy7vswfkzq9h0000gn/T/arduino_cache_261188/core/core_33a28a35d5be94a4487e04df0719a759.a(usb.c.o)
                                                  /var/folders/28/_tsmhg4172s_wy7vswfkzq9h0000gn/T/arduino_cache_261188/core/core_33a28a35d5be94a4487e04df0719a759.a(usb_cdcacm.c.o)
usb_power_off                                     /var/folders/28/_tsmhg4172s_wy7vswfkzq9h0000gn/T/arduino_cache_261188/core/core_33a28a35d5be94a4487e04df0719a759.a(usb.c.o)
                                                  /var/folders/28/_tsmhg4172s_wy7vswfkzq9h0000gn/T/arduino_cache_261188/core/core_33a28a35d5be94a4487e04df0719a759.a(usb_cdcacm.c.o)
usb_set_ep_rx_count                               /var/folders/28/_tsmhg4172s_wy7vswfkzq9h0000gn/T/arduino_cache_261188/core/core_33a28a35d5be94a4487e04df0719a759.a(usb_reg_map.c.o)
                                                  /var/folders/28/_tsmhg4172s_wy7vswfkzq9h0000gn/T/arduino_cache_261188/core/core_33a28a35d5be94a4487e04df0719a759.a(usb_cdcacm.c.o)
vtable for HardwareSerial                         /var/folders/28/_tsmhg4172s_wy7vswfkzq9h0000gn/T/arduino_cache_261188/core/core_33a28a35d5be94a4487e04df0719a759.a(HardwareSerial.cpp.o)
vtable for Print                                  /var/folders/28/_tsmhg4172s_wy7vswfkzq9h0000gn/T/arduino_cache_261188/core/core_33a28a35d5be94a4487e04df0719a759.a(Print.cpp.o)
vtable for Stream                                 /var/folders/28/_tsmhg4172s_wy7vswfkzq9h0000gn/T/arduino_cache_261188/core/core_33a28a35d5be94a4487e04df0719a759.a(HardwareSerial.cpp.o)
                                                  /var/folders/28/_tsmhg4172s_wy7vswfkzq9h0000gn/T/arduino_cache_261188/core/core_33a28a35d5be94a4487e04df0719a759.a(usb_serial.cpp.o)
vtable for USBSerial                              /var/folders/28/_tsmhg4172s_wy7vswfkzq9h0000gn/T/arduino_cache_261188/core/core_33a28a35d5be94a4487e04df0719a759.a(usb_serial.cpp.o)
wInterrupt_Mask                                   /var/folders/28/_tsmhg4172s_wy7vswfkzq9h0000gn/T/arduino_cache_261188/core/core_33a28a35d5be94a4487e04df0719a759.a(usb_init.c.o)
wirish::priv::board_reset_pll()                   /var/folders/28/_tsmhg4172s_wy7vswfkzq9h0000gn/T/arduino_build_279421/core/wirish/boards_setup.cpp.o
                                                  /var/folders/28/_tsmhg4172s_wy7vswfkzq9h0000gn/T/arduino_build_279421/core/wirish/boards.cpp.o
wirish::priv::board_setup_clock_prescalers()      /var/folders/28/_tsmhg4172s_wy7vswfkzq9h0000gn/T/arduino_build_279421/core/wirish/boards_setup.cpp.o
                                                  /var/folders/28/_tsmhg4172s_wy7vswfkzq9h0000gn/T/arduino_build_279421/core/wirish/boards.cpp.o
wirish::priv::board_setup_gpio()                  /var/folders/28/_tsmhg4172s_wy7vswfkzq9h0000gn/T/arduino_build_279421/core/wirish/boards_setup.cpp.o
                                                  /var/folders/28/_tsmhg4172s_wy7vswfkzq9h0000gn/T/arduino_build_279421/core/wirish/boards.cpp.o
wirish::priv::board_setup_usb()                   /var/folders/28/_tsmhg4172s_wy7vswfkzq9h0000gn/T/arduino_build_279421/core/wirish/boards_setup.cpp.o
                                                  /var/folders/28/_tsmhg4172s_wy7vswfkzq9h0000gn/T/arduino_build_279421/core/wirish/boards.cpp.o
wirish::priv::series_init()                       /var/folders/28/_tsmhg4172s_wy7vswfkzq9h0000gn/T/arduino_build_279421/core/wirish/boards_setup.cpp.o
                                                  /var/folders/28/_tsmhg4172s_wy7vswfkzq9h0000gn/T/arduino_build_279421/core/wirish/boards.cpp.o
wirish::priv::w_adc_pre                           /var/folders/28/_tsmhg4172s_wy7vswfkzq9h0000gn/T/arduino_build_279421/core/wirish/boards_setup.cpp.o
                                                  /var/folders/28/_tsmhg4172s_wy7vswfkzq9h0000gn/T/arduino_build_279421/core/wirish/boards.cpp.o
wirish::priv::w_adc_smp                           /var/folders/28/_tsmhg4172s_wy7vswfkzq9h0000gn/T/arduino_build_279421/core/wirish/boards_setup.cpp.o
                                                  /var/folders/28/_tsmhg4172s_wy7vswfkzq9h0000gn/T/arduino_build_279421/core/wirish/boards.cpp.o
wirish::priv::w_board_pll_cfg                     /var/folders/28/_tsmhg4172s_wy7vswfkzq9h0000gn/T/arduino_build_279421/core/wirish/boards_setup.cpp.o
                                                  /var/folders/28/_tsmhg4172s_wy7vswfkzq9h0000gn/T/arduino_build_279421/core/wirish/boards.cpp.o
yield                                             /var/folders/28/_tsmhg4172s_wy7vswfkzq9h0000gn/T/arduino_cache_261188/core/core_33a28a35d5be94a4487e04df0719a759.a(hooks.c.o)
                                                  /var/folders/28/_tsmhg4172s_wy7vswfkzq9h0000gn/T/arduino_cache_261188/core/core_33a28a35d5be94a4487e04df0719a759.a(wirish_time.cpp.o)
